
lab3ParPortAndTimers.elf:     file format elf32-littlenios2
lab3ParPortAndTimers.elf
architecture: nios2:r1, flags 0x00000112:
EXEC_P, HAS_SYMS, D_PAGED
start address 0x01000304

Program Header:
    LOAD off    0x00001000 vaddr 0x01000000 paddr 0x01000000 align 2**12
         filesz 0x00000020 memsz 0x00000020 flags r-x
    LOAD off    0x00001020 vaddr 0x02000020 paddr 0x01000020 align 2**12
         filesz 0x000002e4 memsz 0x000002e4 flags r-x
    LOAD off    0x00001304 vaddr 0x01000304 paddr 0x01000304 align 2**12
         filesz 0x0000fe44 memsz 0x0000fe44 flags r-x
    LOAD off    0x00011148 vaddr 0x01010148 paddr 0x01011c34 align 2**12
         filesz 0x00001aec memsz 0x00001aec flags rw-
    LOAD off    0x00013720 vaddr 0x01013720 paddr 0x01013720 align 2**12
         filesz 0x00000000 memsz 0x00000160 flags rw-

Sections:
Idx Name          Size      VMA       LMA       File off  Algn
  0 .entry        00000020  01000000  01000000  00001000  2**5
                  CONTENTS, ALLOC, LOAD, READONLY, CODE
  1 .exceptions   000002e4  02000020  01000020  00001020  2**2
                  CONTENTS, ALLOC, LOAD, READONLY, CODE
  2 .text         0000f90c  01000304  01000304  00001304  2**2
                  CONTENTS, ALLOC, LOAD, READONLY, CODE
  3 .rodata       00000538  0100fc10  0100fc10  00010c10  2**2
                  CONTENTS, ALLOC, LOAD, READONLY, DATA
  4 .rwdata       00001aec  01010148  01011c34  00011148  2**2
                  CONTENTS, ALLOC, LOAD, DATA, SMALL_DATA
  5 .bss          00000160  01013720  01013720  00013720  2**2
                  ALLOC, SMALL_DATA
  6 .SDRAM_ctrl   00000000  01013880  01013880  00012c34  2**0
                  CONTENTS
  7 .TCIM         00000000  02000304  02000304  00012c34  2**0
                  CONTENTS
  8 .TCDM         00000000  02001000  02001000  00012c34  2**0
                  CONTENTS
  9 .comment      00000023  00000000  00000000  00012c34  2**0
                  CONTENTS, READONLY
 10 .debug_aranges 00000f40  00000000  00000000  00012c58  2**3
                  CONTENTS, READONLY, DEBUGGING
 11 .debug_info   00023d5f  00000000  00000000  00013b98  2**0
                  CONTENTS, READONLY, DEBUGGING
 12 .debug_abbrev 0000941d  00000000  00000000  000378f7  2**0
                  CONTENTS, READONLY, DEBUGGING
 13 .debug_line   0000b876  00000000  00000000  00040d14  2**0
                  CONTENTS, READONLY, DEBUGGING
 14 .debug_frame  00002244  00000000  00000000  0004c58c  2**2
                  CONTENTS, READONLY, DEBUGGING
 15 .debug_str    00003a2a  00000000  00000000  0004e7d0  2**0
                  CONTENTS, READONLY, DEBUGGING
 16 .debug_loc    000178a8  00000000  00000000  000521fa  2**0
                  CONTENTS, READONLY, DEBUGGING
 17 .debug_alt_sim_info 00000030  00000000  00000000  00069aa4  2**2
                  CONTENTS, READONLY, DEBUGGING
 18 .debug_ranges 000018d8  00000000  00000000  00069ad8  2**3
                  CONTENTS, READONLY, DEBUGGING
 19 .thread_model 00000003  00000000  00000000  0006e736  2**0
                  CONTENTS, READONLY
 20 .cpu          00000003  00000000  00000000  0006e739  2**0
                  CONTENTS, READONLY
 21 .qsys         00000001  00000000  00000000  0006e73c  2**0
                  CONTENTS, READONLY
 22 .simulation_enabled 00000001  00000000  00000000  0006e73d  2**0
                  CONTENTS, READONLY
 23 .sysid_hash   00000004  00000000  00000000  0006e73e  2**0
                  CONTENTS, READONLY
 24 .sysid_base   00000004  00000000  00000000  0006e742  2**0
                  CONTENTS, READONLY
 25 .sysid_time   00000004  00000000  00000000  0006e746  2**0
                  CONTENTS, READONLY
 26 .stderr_dev   00000009  00000000  00000000  0006e74a  2**0
                  CONTENTS, READONLY
 27 .stdin_dev    00000009  00000000  00000000  0006e753  2**0
                  CONTENTS, READONLY
 28 .stdout_dev   00000009  00000000  00000000  0006e75c  2**0
                  CONTENTS, READONLY
 29 .sopc_system_name 0000000a  00000000  00000000  0006e765  2**0
                  CONTENTS, READONLY
 30 .quartus_project_dir 00000061  00000000  00000000  0006e76f  2**0
                  CONTENTS, READONLY
 31 .jdi          00003fa7  00000000  00000000  0006e7d0  2**0
                  CONTENTS, READONLY
 32 .sopcinfo     000685aa  00000000  00000000  00072777  2**0
                  CONTENTS, READONLY
SYMBOL TABLE:
01000000 l    d  .entry	00000000 .entry
02000020 l    d  .exceptions	00000000 .exceptions
01000304 l    d  .text	00000000 .text
0100fc10 l    d  .rodata	00000000 .rodata
01010148 l    d  .rwdata	00000000 .rwdata
01013720 l    d  .bss	00000000 .bss
01013880 l    d  .SDRAM_ctrl	00000000 .SDRAM_ctrl
02000304 l    d  .TCIM	00000000 .TCIM
02001000 l    d  .TCDM	00000000 .TCDM
00000000 l    d  .comment	00000000 .comment
00000000 l    d  .debug_aranges	00000000 .debug_aranges
00000000 l    d  .debug_info	00000000 .debug_info
00000000 l    d  .debug_abbrev	00000000 .debug_abbrev
00000000 l    d  .debug_line	00000000 .debug_line
00000000 l    d  .debug_frame	00000000 .debug_frame
00000000 l    d  .debug_str	00000000 .debug_str
00000000 l    d  .debug_loc	00000000 .debug_loc
00000000 l    d  .debug_alt_sim_info	00000000 .debug_alt_sim_info
00000000 l    d  .debug_ranges	00000000 .debug_ranges
00000000 l    df *ABS*	00000000 ../lab3ParPortAndTimers_bsp//obj/HAL/src/crt0.o
0100034c l       .text	00000000 alt_after_alt_main
00000000 l    df *ABS*	00000000 main.c
020000fc l     F .exceptions	000000c0 handle_timerIRQ
010004f0 l     F .text	00000040 initPioLeds
00000000 l    df *ABS*	00000000 alt_irq_handler.c
00000000 l    df *ABS*	00000000 alt_instruction_exception_entry.c
00000000 l    df *ABS*	00000000 printf.c
00000000 l    df *ABS*	00000000 puts.c
00000000 l    df *ABS*	00000000 strlen.c
00000000 l    df *ABS*	00000000 vfprintf.c
0100fd96 l     O .rodata	00000010 zeroes.4404
0100291c l     F .text	000000bc __sbprintf
0100fda6 l     O .rodata	00000010 blanks.4403
00000000 l    df *ABS*	00000000 wsetup.c
00000000 l    df *ABS*	00000000 dtoa.c
01002b2c l     F .text	00000200 quorem
00000000 l    df *ABS*	00000000 fflush.c
00000000 l    df *ABS*	00000000 findfp.c
0100465c l     F .text	00000008 __fp_unlock
01004670 l     F .text	0000019c __sinit.part.1
0100480c l     F .text	00000008 __fp_lock
00000000 l    df *ABS*	00000000 mallocr.c
00000000 l    df *ABS*	00000000 fvwrite.c
00000000 l    df *ABS*	00000000 fwalk.c
00000000 l    df *ABS*	00000000 impure.c
01010148 l     O .rwdata	00000424 impure_data
00000000 l    df *ABS*	00000000 locale.c
0101058c l     O .rwdata	00000020 lc_ctype_charset
0101056c l     O .rwdata	00000020 lc_message_charset
010105ac l     O .rwdata	00000038 lconv
00000000 l    df *ABS*	00000000 makebuf.c
00000000 l    df *ABS*	00000000 mallocr.c
00000000 l    df *ABS*	00000000 memchr.c
00000000 l    df *ABS*	00000000 memcpy.c
00000000 l    df *ABS*	00000000 memmove.c
00000000 l    df *ABS*	00000000 memset.c
00000000 l    df *ABS*	00000000 mprec.c
0100fdd8 l     O .rodata	0000000c p05.2768
00000000 l    df *ABS*	00000000 mallocr.c
00000000 l    df *ABS*	00000000 s_fpclassify.c
00000000 l    df *ABS*	00000000 sbrkr.c
00000000 l    df *ABS*	00000000 stdio.c
00000000 l    df *ABS*	00000000 strcmp.c
00000000 l    df *ABS*	00000000 vfprintf.c
01007c08 l     F .text	000000fc __sprint_r.part.0
0100ff0c l     O .rodata	00000010 blanks.4348
0100fefc l     O .rodata	00000010 zeroes.4349
01009194 l     F .text	000000bc __sbprintf
00000000 l    df *ABS*	00000000 writer.c
00000000 l    df *ABS*	00000000 closer.c
00000000 l    df *ABS*	00000000 mallocr.c
00000000 l    df *ABS*	00000000 fclose.c
00000000 l    df *ABS*	00000000 fputwc.c
00000000 l    df *ABS*	00000000 fstatr.c
00000000 l    df *ABS*	00000000 int_errno.c
00000000 l    df *ABS*	00000000 isattyr.c
00000000 l    df *ABS*	00000000 lseekr.c
00000000 l    df *ABS*	00000000 readr.c
00000000 l    df *ABS*	00000000 wbuf.c
00000000 l    df *ABS*	00000000 wcrtomb.c
00000000 l    df *ABS*	00000000 wctomb_r.c
00000000 l    df *ABS*	00000000 libgcc2.c
00000000 l    df *ABS*	00000000 libgcc2.c
00000000 l    df *ABS*	00000000 lib2-divmod.c
00000000 l    df *ABS*	00000000 adddf3.c
00000000 l    df *ABS*	00000000 divdf3.c
00000000 l    df *ABS*	00000000 eqdf2.c
00000000 l    df *ABS*	00000000 gedf2.c
00000000 l    df *ABS*	00000000 ledf2.c
00000000 l    df *ABS*	00000000 muldf3.c
00000000 l    df *ABS*	00000000 subdf3.c
00000000 l    df *ABS*	00000000 fixdfsi.c
00000000 l    df *ABS*	00000000 floatsidf.c
00000000 l    df *ABS*	00000000 floatunsidf.c
00000000 l    df *ABS*	00000000 libgcc2.c
00000000 l    df *ABS*	00000000 libgcc2.c
00000000 l    df *ABS*	00000000 alt_close.c
0100ce50 l     F .text	0000003c alt_get_errno
00000000 l    df *ABS*	00000000 alt_dev.c
0100cf5c l     F .text	0000002c alt_dev_null_write
00000000 l    df *ABS*	00000000 alt_errno.c
00000000 l    df *ABS*	00000000 alt_fstat.c
0100cf88 l     F .text	0000003c alt_get_errno
00000000 l    df *ABS*	00000000 alt_irq_register.c
00000000 l    df *ABS*	00000000 alt_irq_vars.c
00000000 l    df *ABS*	00000000 alt_isatty.c
0100d1f4 l     F .text	0000003c alt_get_errno
00000000 l    df *ABS*	00000000 alt_load.c
0100d2d4 l     F .text	00000068 alt_load_section
00000000 l    df *ABS*	00000000 alt_lseek.c
0100d3c0 l     F .text	0000003c alt_get_errno
00000000 l    df *ABS*	00000000 alt_main.c
00000000 l    df *ABS*	00000000 alt_malloc_lock.c
00000000 l    df *ABS*	00000000 alt_read.c
0100d594 l     F .text	0000003c alt_get_errno
00000000 l    df *ABS*	00000000 alt_release_fd.c
00000000 l    df *ABS*	00000000 alt_sbrk.c
01011c28 l     O .rwdata	00000004 heap_end
00000000 l    df *ABS*	00000000 alt_write.c
0100d7e0 l     F .text	0000003c alt_get_errno
00000000 l    df *ABS*	00000000 alt_sys_init.c
0100d914 l     F .text	00000034 alt_dev_reg
01010b94 l     O .rwdata	00001060 jtag_uart
00000000 l    df *ABS*	00000000 altera_avalon_jtag_uart_fd.c
00000000 l    df *ABS*	00000000 altera_avalon_jtag_uart_init.c
0100dc18 l     F .text	0000020c altera_avalon_jtag_uart_irq
0100de24 l     F .text	000000a0 altera_avalon_jtag_uart_timeout
00000000 l    df *ABS*	00000000 altera_avalon_jtag_uart_ioctl.c
00000000 l    df *ABS*	00000000 altera_avalon_jtag_uart_read.c
00000000 l    df *ABS*	00000000 altera_avalon_jtag_uart_write.c
00000000 l    df *ABS*	00000000 altera_avalon_performance_counter.c
00000000 l    df *ABS*	00000000 altera_avalon_timer_sc.c
0100e5ec l     F .text	00000078 alt_avalon_timer_sc_irq
00000000 l    df *ABS*	00000000 perf_print_formatted_report.c
00000000 l    df *ABS*	00000000 alt_alarm_start.c
00000000 l    df *ABS*	00000000 alt_dcache_flush_all.c
00000000 l    df *ABS*	00000000 alt_dev_llist_insert.c
0100ead4 l     F .text	0000003c alt_get_errno
00000000 l    df *ABS*	00000000 alt_do_ctors.c
00000000 l    df *ABS*	00000000 alt_do_dtors.c
00000000 l    df *ABS*	00000000 alt_icache_flush_all.c
00000000 l    df *ABS*	00000000 alt_iic.c
00000000 l    df *ABS*	00000000 alt_iic_isr_register.c
00000000 l    df *ABS*	00000000 alt_io_redirect.c
0100ef48 l     F .text	000000c4 alt_open_fd
00000000 l    df *ABS*	00000000 alt_open.c
0100f088 l     F .text	0000003c alt_get_errno
0100f0c4 l     F .text	000000c4 alt_file_locked
00000000 l    df *ABS*	00000000 alt_tick.c
00000000 l    df *ABS*	00000000 altera_nios2_gen2_irq.c
00000000 l    df *ABS*	00000000 alt_find_dev.c
00000000 l    df *ABS*	00000000 alt_find_file.c
00000000 l    df *ABS*	00000000 alt_get_fd.c
00000000 l    df *ABS*	00000000 alt_icache_flush.c
00000000 l    df *ABS*	00000000 atexit.c
00000000 l    df *ABS*	00000000 exit.c
00000000 l    df *ABS*	00000000 memcmp.c
00000000 l    df *ABS*	00000000 __atexit.c
00000000 l    df *ABS*	00000000 __call_atexit.c
00000000 l    df *ABS*	00000000 libgcc2.c
00000000 l    df *ABS*	00000000 alt_exit.c
01013754 g     O .bss	00000004 alt_instruction_exception_handler
0100724c g     F .text	00000074 _mprec_log10
01007338 g     F .text	0000008c __any_on
01009730 g     F .text	00000054 _isatty_r
0100fde4 g     O .rodata	00000028 __mprec_tinytens
0100d4d0 g     F .text	0000007c alt_main
0100059c g     F .text	000000c0 _puts_r
01013780 g     O .bss	00000100 alt_irq
01009784 g     F .text	00000060 _lseek_r
01011c34 g       *ABS*	00000000 __flash_rwdata_start
0100b97c g     F .text	00000088 .hidden __eqdf2
01013880 g       *ABS*	00000000 __alt_heap_start
01000560 g     F .text	0000003c printf
0100999c g     F .text	0000009c _wcrtomb_r
01007ac8 g     F .text	0000005c __sseek
010049ac g     F .text	00000010 __sinit
0100e5c8 g     F .text	00000024 alt_get_cpu_freq
01009844 g     F .text	00000140 __swbuf_r
01005474 g     F .text	0000007c _setlocale_r
01004814 g     F .text	00000068 __sfmoreglue
0100d570 g     F .text	00000024 __malloc_unlock
01006144 g     F .text	0000015c memmove
0100e6e0 g     F .text	00000280 perf_print_formatted_report
01004994 g     F .text	00000018 _cleanup
010063c8 g     F .text	000000a8 _Balloc
0100ba04 g     F .text	000000dc .hidden __gtdf2
0100f480 g     F .text	00000024 altera_nios2_gen2_irq_init
01000000 g     F .entry	0000001c __reset
01000020 g       *ABS*	00000000 __flash_exceptions_start
010096d4 g     F .text	0000005c _fstat_r
01013738 g     O .bss	00000004 errno
01007a44 g     F .text	00000008 __seofread
01013744 g     O .bss	00000004 alt_argv
01019bf4 g       *ABS*	00000000 _gp
01010a14 g     O .rwdata	00000180 alt_fd_list
0100f4a4 g     F .text	00000090 alt_find_dev
01005ffc g     F .text	00000148 memcpy
01004664 g     F .text	0000000c _cleanup_r
0100cc68 g     F .text	000000dc .hidden __floatsidf
0100f00c g     F .text	0000007c alt_io_redirect
0100bae0 g     F .text	000000f4 .hidden __ltdf2
0100fc10 g       *ABS*	00000000 __DTOR_END__
0100065c g     F .text	00000014 puts
0100f770 g     F .text	0000009c alt_exception_cause_generated_bad_addr
01007928 g     F .text	00000074 __fpclassifyd
010071a8 g     F .text	000000a4 __ratio
01009178 g     F .text	0000001c __vfiprintf_internal
0100e01c g     F .text	0000021c altera_avalon_jtag_uart_read
01000530 g     F .text	00000030 _printf_r
0100a72c g     F .text	00000064 .hidden __udivsi3
0100d230 g     F .text	000000a4 isatty
01000000 g       *ABS*	00000000 __alt_mem_SDRAM_ctrl
0100fe34 g     O .rodata	000000c8 __mprec_tens
010054f0 g     F .text	0000000c __locale_charset
0100f6e0 g     F .text	00000090 alt_icache_flush
01013734 g     O .bss	00000004 __malloc_top_pad
0100e564 g     F .text	00000040 perf_get_num_starts
01011bfc g     O .rwdata	00000004 __mb_cur_max
01005520 g     F .text	0000000c _localeconv_r
010067d4 g     F .text	0000003c __i2b
01004e30 g     F .text	000004bc __sfvwrite_r
0100799c g     F .text	00000054 _sbrk_r
010097e4 g     F .text	00000060 _read_r
01011c1c g     O .rwdata	00000004 alt_max_fd
010093c8 g     F .text	000000f0 _fclose_r
0100462c g     F .text	00000030 fflush
01013730 g     O .bss	00000004 __malloc_max_sbrked_mem
0100d074 g     F .text	00000180 alt_irq_register
0100a7e8 g     F .text	000008ac .hidden __adddf3
01006f50 g     F .text	0000010c __b2d
0100a0fc g     F .text	00000538 .hidden __umoddi3
0100d3fc g     F .text	000000d4 lseek
01011bf4 g     O .rwdata	00000004 _global_impure_ptr
010073c4 g     F .text	00000564 _realloc_r
01013880 g       *ABS*	00000000 __bss_end
0100ee58 g     F .text	000000f0 alt_iic_isr_register
0100f378 g     F .text	00000108 alt_tick
01009b84 g     F .text	00000578 .hidden __udivdi3
01009630 g     F .text	00000024 _fputwc_r
0100fe0c g     O .rodata	00000028 __mprec_bigtens
010065b8 g     F .text	00000104 __s2b
0100cd44 g     F .text	000000a8 .hidden __floatunsidf
01006c90 g     F .text	00000060 __mcmp
010049cc g     F .text	00000018 __fp_lock_all
0100ee0c g     F .text	0000004c alt_ic_irq_enabled
0100f2dc g     F .text	0000009c alt_alarm_stop
0101373c g     O .bss	00000004 alt_irq_active
020001bc g     F .exceptions	000000d4 alt_irq_handler
010109ec g     O .rwdata	00000028 alt_dev_null
0100ea8c g     F .text	00000048 alt_dcache_flush_all
010066bc g     F .text	00000068 __hi0bits
0100cbe8 g     F .text	00000080 .hidden __fixdfsi
01011c34 g       *ABS*	00000000 __ram_rwdata_end
01011c14 g     O .rwdata	00000008 alt_dev_list
0100d81c g     F .text	000000f8 write
01010148 g       *ABS*	00000000 __ram_rodata_end
0100cfc4 g     F .text	000000b0 fstat
0100bae0 g     F .text	000000f4 .hidden __ledf2
01006a08 g     F .text	00000140 __pow5mult
01007d1c g     F .text	0000145c ___vfiprintf_internal_r
01013728 g     O .bss	00000004 __nlocale_changed
0100a790 g     F .text	00000058 .hidden __umodsi3
01013880 g       *ABS*	00000000 end
0100db58 g     F .text	000000c0 altera_avalon_jtag_uart_init
02000290 g     F .exceptions	00000074 alt_instruction_exception_entry
0100fc10 g       *ABS*	00000000 __CTOR_LIST__
02000000 g       *ABS*	00000000 __alt_stack_pointer
0100e664 g     F .text	0000007c alt_avalon_timer_sc_init
0100cdec g     F .text	00000064 .hidden __clzsi2
0100e238 g     F .text	00000224 altera_avalon_jtag_uart_write
010049bc g     F .text	00000004 __sfp_lock_acquire
01005f18 g     F .text	000000e4 memchr
01000708 g     F .text	000021f8 ___vfprintf_internal_r
01004b20 g     F .text	00000310 _free_r
010054fc g     F .text	00000010 __locale_mb_cur_max
0100f9ec g     F .text	00000180 __call_exitprocs
01013724 g     O .bss	00000004 __mlocale_changed
01011c00 g     O .rwdata	00000004 __malloc_sbrk_base
01000304 g     F .text	0000004c _start
0101374c g     O .bss	00000004 _alt_tick_rate
0100fb6c g     F .text	00000070 .hidden __floatundidf
01006b48 g     F .text	00000148 __lshift
01013750 g     O .bss	00000004 _alt_nticks
0100d5d0 g     F .text	000000fc read
0100d980 g     F .text	00000074 alt_sys_init
0100f8d4 g     F .text	00000118 __register_exitproc
01006810 g     F .text	000001f8 __multiply
0100dec4 g     F .text	00000068 altera_avalon_jtag_uart_close
01010148 g       *ABS*	00000000 __ram_rwdata_start
0100fc10 g       *ABS*	00000000 __ram_rodata_start
01013758 g     O .bss	00000028 __malloc_current_mallinfo
0100705c g     F .text	0000014c __d2b
0100d9f4 g     F .text	00000060 altera_avalon_jtag_uart_read_fd
0100f63c g     F .text	000000a4 alt_get_fd
010092b0 g     F .text	00000054 _close_r
0100e45c g     F .text	000000bc perf_get_section_time
0100f858 g     F .text	0000007c memcmp
0100dab4 g     F .text	00000050 altera_avalon_jtag_uart_close_fd
01013880 g       *ABS*	00000000 __alt_stack_base
0100db04 g     F .text	00000054 altera_avalon_jtag_uart_ioctl_fd
010029d8 g     F .text	00000154 __swsetup_r
0100b094 g     F .text	000008e8 .hidden __divdf3
0100487c g     F .text	00000118 __sfp
010072c0 g     F .text	00000078 __copybits
0100e518 g     F .text	0000004c perf_get_total_time
010105e4 g     O .rwdata	00000408 __malloc_av_
010049c8 g     F .text	00000004 __sinit_lock_release
0100bbd4 g     F .text	00000718 .hidden __muldf3
010079f0 g     F .text	00000054 __sread
0100f534 g     F .text	00000108 alt_find_file
0100eb10 g     F .text	000000a4 alt_dev_llist_insert
0100d54c g     F .text	00000024 __malloc_lock
0100d730 g     F .text	000000b0 sbrk
010045d0 g     F .text	0000005c _fflush_r
01009304 g     F .text	000000c4 _calloc_r
01013720 g       *ABS*	00000000 __bss_start
010062a0 g     F .text	00000128 memset
01000350 g     F .text	000001a0 main
01013748 g     O .bss	00000004 alt_envp
0101372c g     O .bss	00000004 __malloc_max_total_mem
0100da54 g     F .text	00000060 altera_avalon_jtag_uart_write_fd
01009984 g     F .text	00000018 __swbuf
01007b24 g     F .text	00000008 __sclose
02000000 g       *ABS*	00000000 __alt_heap_limit
010094b8 g     F .text	00000014 fclose
01002d2c g     F .text	00001688 _dtoa_r
0100570c g     F .text	0000080c _malloc_r
01009af8 g     F .text	00000030 __ascii_wctomb
01011c20 g     O .rwdata	00000004 alt_errno
010052ec g     F .text	000000c4 _fwalk
0100a634 g     F .text	00000084 .hidden __divsi3
010049fc g     F .text	00000124 _malloc_trim_r
0100fc10 g       *ABS*	00000000 __CTOR_END__
01007b2c g     F .text	000000dc strcmp
0100fc10 g       *ABS*	00000000 __flash_rodata_start
0100fc10 g       *ABS*	00000000 __DTOR_LIST__
0100b97c g     F .text	00000088 .hidden __nedf2
0100d948 g     F .text	00000038 alt_irq_init
0100d6cc g     F .text	00000064 alt_release_fd
0100ff1c g     O .rodata	00000100 .hidden __clz_tab
01013720 g     O .bss	00000004 _PathLocale
0100f80c g     F .text	00000014 atexit
01009250 g     F .text	00000060 _write_r
0100552c g     F .text	00000018 setlocale
01011bf8 g     O .rwdata	00000004 _impure_ptr
01013740 g     O .bss	00000004 alt_argc
010043b4 g     F .text	0000021c __sflush_r
0100ec14 g     F .text	00000060 _do_dtors
01005518 g     F .text	00000008 __locale_cjk_lang
02000020 g       .exceptions	00000000 alt_irq_entry
01006eec g     F .text	00000064 __ulp
010049e4 g     F .text	00000018 __fp_unlock_all
01011c0c g     O .rwdata	00000008 alt_fs_list
02000020 g       *ABS*	00000000 __ram_exceptions_start
01005544 g     F .text	0000000c localeconv
0100eca8 g     F .text	00000050 alt_ic_isr_register
01011c34 g       *ABS*	00000000 _edata
02001000 g       *ABS*	00000000 __alt_mem_TCDM
01013880 g       *ABS*	00000000 _end
010094cc g     F .text	00000164 __fputwc
02000304 g       *ABS*	00000000 __ram_exceptions_end
0100df2c g     F .text	000000f0 altera_avalon_jtag_uart_ioctl
0100ed80 g     F .text	0000008c alt_ic_irq_disable
01007a4c g     F .text	0000007c __swrite
01011c04 g     O .rwdata	00000004 __malloc_trim_threshold
0100e5a4 g     F .text	00000024 alt_get_performance_counter_base
0100550c g     F .text	0000000c __locale_msgcharset
0100f820 g     F .text	00000038 exit
010053b0 g     F .text	000000c4 _fwalk_reent
01006cf0 g     F .text	000001fc __mdiff
0100a6b8 g     F .text	00000074 .hidden __modsi3
02000000 g       *ABS*	00000000 __alt_data_end
02000020 g     F .exceptions	00000000 alt_exception
010049c0 g     F .text	00000004 __sfp_lock_release
0100fbdc g     F .text	00000034 _exit
02000000 g       *ABS*	00000000 __alt_mem_TCIM
0100e960 g     F .text	0000012c alt_alarm_start
01005550 g     F .text	000001bc __smakebuf_r
01000670 g     F .text	00000098 strlen
0100f188 g     F .text	00000154 open
0100ba04 g     F .text	000000dc .hidden __gedf2
01011c08 g     O .rwdata	00000004 __wctomb
01007d04 g     F .text	00000018 __sprint_r
0100ec74 g     F .text	00000034 alt_icache_flush_all
01011c24 g     O .rwdata	00000004 alt_priority_mask
0100ecf8 g     F .text	00000088 alt_ic_irq_enable
01002900 g     F .text	0000001c __vfprintf_internal
01009b28 g     F .text	0000005c _wctomb_r
0100c2ec g     F .text	000008fc .hidden __subdf3
01006724 g     F .text	000000b0 __lo0bits
01011c2c g     O .rwdata	00000008 alt_alarm_list
0100ebb4 g     F .text	00000060 _do_ctors
01009a38 g     F .text	000000c0 wcrtomb
0100ce8c g     F .text	000000d0 close
0100d33c g     F .text	00000084 alt_load
01009654 g     F .text	00000080 fputwc
010049c4 g     F .text	00000004 __sinit_lock_acquire
01006498 g     F .text	00000120 __multadd
01006470 g     F .text	00000028 _Bfree



Disassembly of section .entry:

01000000 <__reset>:
#if NIOS2_ICACHE_SIZE > 0 && defined(ALT_ALLOW_CODE_AT_RESET) && (!defined(ALT_SIM_OPTIMIZE) || defined(NIOS2_ECC_PRESENT))
    /* Assume the instruction cache size is always a power of two. */
#if NIOS2_ICACHE_SIZE > 0x8000
    movhi r2, %hi(NIOS2_ICACHE_SIZE)
#else
    movui r2, NIOS2_ICACHE_SIZE
 1000000:	00840014 	movui	r2,4096
#endif

0:
    initi r2
 1000004:	1001483a 	initi	r2
    addi r2, r2, -NIOS2_ICACHE_LINE_SIZE
 1000008:	10bff804 	addi	r2,r2,-32
    bgt r2, zero, 0b
 100000c:	00bffd16 	blt	zero,r2,1000004 <__alt_mem_TCDM+0xfefff004>
 * Jump to the _start entry point in the .text section if reset code
 * is allowed or if optimizing for RTL simulation.
 */
#if defined(ALT_ALLOW_CODE_AT_RESET) || defined(ALT_SIM_OPTIMIZE)
    /* Jump to the _start entry point in the .text section. */
    movhi r1, %hi(_start)
 1000010:	00404034 	movhi	at,256
    ori r1, r1, %lo(_start)
 1000014:	0840c114 	ori	at,at,772
    jmp r1
 1000018:	0800683a 	jmp	at
 100001c:	00000000 	call	0 <__reset-0x1000000>

Disassembly of section .exceptions:

02000020 <alt_exception>:

#else /* ALT_EXCEPTION_STACK disabled */
        /* 
         * Reserve space on normal stack for registers about to be pushed.
         */
        addi  sp, sp, -76
 2000020:	deffed04 	addi	sp,sp,-76
         * documentation for details).
         *
         * Leave a gap in the stack frame at 4(sp) for the muldiv handler to
         * store zero into.
         */
        stw   ra,  0(sp)
 2000024:	dfc00015 	stw	ra,0(sp)
        stw   r1,   8(sp)
 2000028:	d8400215 	stw	at,8(sp)
        stw   r2,  12(sp)
 200002c:	d8800315 	stw	r2,12(sp)
        stw   r3,  16(sp)
 2000030:	d8c00415 	stw	r3,16(sp)
        stw   r4,  20(sp)
 2000034:	d9000515 	stw	r4,20(sp)
        stw   r5,  24(sp)
 2000038:	d9400615 	stw	r5,24(sp)
        stw   r6,  28(sp)
 200003c:	d9800715 	stw	r6,28(sp)
        stw   r7,  32(sp)
 2000040:	d9c00815 	stw	r7,32(sp)
        rdctl r5, estatus   /* Read early to avoid usage stall */
 2000044:	000b307a 	rdctl	r5,estatus
        stw   r8,  36(sp)
 2000048:	da000915 	stw	r8,36(sp)
        stw   r9,  40(sp)
 200004c:	da400a15 	stw	r9,40(sp)
        stw   r10, 44(sp)
 2000050:	da800b15 	stw	r10,44(sp)
        stw   r11, 48(sp)
 2000054:	dac00c15 	stw	r11,48(sp)
        stw   r12, 52(sp)
 2000058:	db000d15 	stw	r12,52(sp)
        stw   r13, 56(sp)
 200005c:	db400e15 	stw	r13,56(sp)
        stw   r14, 60(sp)
 2000060:	db800f15 	stw	r14,60(sp)
        stw   r15, 64(sp)
 2000064:	dbc01015 	stw	r15,64(sp)
        /*
         * ea-4 contains the address of the instruction being executed
         * when the exception occured. For interrupt exceptions, we will
         * will be re-issue the isntruction. Store it in 72(sp)
         */
        stw   r5,  68(sp)  /* estatus */
 2000068:	d9401115 	stw	r5,68(sp)
        addi  r15, ea, -4  /* instruction that caused exception */
 200006c:	ebffff04 	addi	r15,ea,-4
        stw   r15,  72(sp)
 2000070:	dbc01215 	stw	r15,72(sp)
#else
        /*
         * Test to see if the exception was a software exception or caused 
         * by an external interrupt, and vector accordingly.
         */
        rdctl r4, ipending
 2000074:	0009313a 	rdctl	r4,ipending
        andi  r2, r5, 1
 2000078:	2880004c 	andi	r2,r5,1
        beq   r2, zero, .Lnot_irq
 200007c:	10000326 	beq	r2,zero,200008c <alt_exception+0x6c>
        beq   r4, zero, .Lnot_irq
 2000080:	20000226 	beq	r4,zero,200008c <alt_exception+0x6c>
        /*
         * Now that all necessary registers have been preserved, call 
         * alt_irq_handler() to process the interrupts.
         */

        call alt_irq_handler
 2000084:	20001bc0 	call	20001bc <alt_irq_handler>

        .section .exceptions.irqreturn, "xa"

        br    .Lexception_exit
 2000088:	00000706 	br	20000a8 <alt_exception+0x88>
         * upon completion, so we write ea (address of instruction *after*
         * the one where the exception occured) into 72(sp). The actual
         * instruction that caused the exception is written in r2, which these
         * handlers will utilize.
         */
        stw ea, 72(sp) /* EA is PC+4 so will skip over instruction causing exception */
 200008c:	df401215 	stw	ea,72(sp)
.Lunknown_16bit:
        addi.n r4, r4, 2 /* Need PC+2 to skip over instruction causing exception */
        stw r4, 72(sp)

#else /* CDX is not Enabled and all instructions are 32bits */
        ldw r2, -4(ea) /* Instruction value that caused exception */
 2000090:	e8bfff17 	ldw	r2,-4(ea)
         * debugger is present) or go into an infinite loop since the
         * handling behavior is undefined; in that case we will not return here.
         */

        /* Load exception-causing address as first argument (r4) */
        addi   r4, ea, -4
 2000094:	e93fff04 	addi	r4,ea,-4

        /* Call the instruction-exception entry */
        call   alt_instruction_exception_entry
 2000098:	20002900 	call	2000290 <alt_instruction_exception_entry>
         * instruction
         *
         * Return code was 0: Skip. The instruction after the exception is
         * already stored in 72(sp).
         */
        bne   r2, r0, .Lexception_exit
 200009c:	1000021e 	bne	r2,zero,20000a8 <alt_exception+0x88>

        /*
         * Otherwise, modify 72(sp) to re-issue the instruction that caused the
         * exception.
         */
        addi  r15, ea, -4  /* instruction that caused exception */
 20000a0:	ebffff04 	addi	r15,ea,-4
        stw   r15,  72(sp)
 20000a4:	dbc01215 	stw	r15,72(sp)
        /* 
         * Restore the saved registers, so that all general purpose registers 
         * have been restored to their state at the time the interrupt occured.
         */

        ldw   r5,  68(sp)
 20000a8:	d9401117 	ldw	r5,68(sp)
        ldw   ea,  72(sp)  /* This becomes the PC once eret is executed */
 20000ac:	df401217 	ldw	ea,72(sp)
        ldw   ra,   0(sp)
 20000b0:	dfc00017 	ldw	ra,0(sp)

        wrctl estatus, r5
 20000b4:	2801707a 	wrctl	estatus,r5

        ldw   r1,   8(sp)
 20000b8:	d8400217 	ldw	at,8(sp)
        ldw   r2,  12(sp)
 20000bc:	d8800317 	ldw	r2,12(sp)
        ldw   r3,  16(sp)
 20000c0:	d8c00417 	ldw	r3,16(sp)
        ldw   r4,  20(sp)
 20000c4:	d9000517 	ldw	r4,20(sp)
        ldw   r5,  24(sp)
 20000c8:	d9400617 	ldw	r5,24(sp)
        ldw   r6,  28(sp)
 20000cc:	d9800717 	ldw	r6,28(sp)
        ldw   r7,  32(sp)
 20000d0:	d9c00817 	ldw	r7,32(sp)

#if defined(ALT_EXCEPTION_STACK) && defined(ALT_STACK_CHECK)
        ldw   et, %gprel(alt_exception_old_stack_limit)(gp)
#endif

        ldw   r8,  36(sp)
 20000d4:	da000917 	ldw	r8,36(sp)
        ldw   r9,  40(sp)
 20000d8:	da400a17 	ldw	r9,40(sp)
        ldw   r10, 44(sp)
 20000dc:	da800b17 	ldw	r10,44(sp)
        ldw   r11, 48(sp)
 20000e0:	dac00c17 	ldw	r11,48(sp)
        ldw   r12, 52(sp)
 20000e4:	db000d17 	ldw	r12,52(sp)
        ldw   r13, 56(sp)
 20000e8:	db400e17 	ldw	r13,56(sp)
        ldw   r14, 60(sp)
 20000ec:	db800f17 	ldw	r14,60(sp)
        ldw   r15, 64(sp)
 20000f0:	dbc01017 	ldw	r15,64(sp)
        stw   et, %gprel(alt_stack_limit_value)(gp)
        stw   zero, %gprel(alt_exception_old_stack_limit)(gp)
#endif /* ALT_STACK_CHECK */
        ldw   sp,  76(sp)
#else /* ALT_EXCEPTION_STACK disabled */
        addi  sp, sp, 76
 20000f4:	dec01304 	addi	sp,sp,76

        /*
         * Return to the interrupted instruction.
         */

        eret
 20000f8:	ef80083a 	eret

020000fc <handle_timerIRQ>:
	perf_print_formatted_report(PERFORMANCE_COUNTER_0_BASE, alt_get_cpu_freq(),
			1, "ISR");
	return 0;
}

static void handle_timerIRQ(void* context, alt_u32 id) {
 20000fc:	defffb04 	addi	sp,sp,-20
 2000100:	dfc00415 	stw	ra,16(sp)
 2000104:	df000315 	stw	fp,12(sp)
 2000108:	df000304 	addi	fp,sp,12
 200010c:	e13ffe15 	stw	r4,-8(fp)
 2000110:	e17fff15 	stw	r5,-4(fp)
	PERF_BEGIN(PERFORMANCE_COUNTER_0_BASE, PERFORMANCE_COUNTER_SEG_ISR);
 2000114:	0007883a 	mov	r3,zero
 2000118:	00808034 	movhi	r2,512
 200011c:	108c0504 	addi	r2,r2,12308
 2000120:	10c00035 	stwio	r3,0(r2)

	Counter* data_ptr = (Counter*) context;
 2000124:	e0bffe17 	ldw	r2,-8(fp)
 2000128:	e0bffd15 	stw	r2,-12(fp)

	(data_ptr->value)++;
 200012c:	e0bffd17 	ldw	r2,-12(fp)
 2000130:	10800017 	ldw	r2,0(r2)
 2000134:	10c00044 	addi	r3,r2,1
 2000138:	e0bffd17 	ldw	r2,-12(fp)
 200013c:	10c00015 	stw	r3,0(r2)
	data_ptr->isNew = true;
 2000140:	e0bffd17 	ldw	r2,-12(fp)
 2000144:	00c00044 	movi	r3,1
 2000148:	10c00105 	stb	r3,4(r2)

	IOWR_8DIRECT(MYPIO_LEDS_BASE, 0x02U, data_ptr->value);
 200014c:	e0bffd17 	ldw	r2,-12(fp)
 2000150:	10800017 	ldw	r2,0(r2)
 2000154:	1007883a 	mov	r3,r2
 2000158:	00808034 	movhi	r2,512
 200015c:	108c2e84 	addi	r2,r2,12474
 2000160:	10c00025 	stbio	r3,0(r2)
	printf("New pin value: %d\r\n", IORD_8DIRECT(MYPIO_LEDS_BASE, 0x001));
 2000164:	00808034 	movhi	r2,512
 2000168:	108c2e44 	addi	r2,r2,12473
 200016c:	10800023 	ldbuio	r2,0(r2)
 2000170:	10803fcc 	andi	r2,r2,255
 2000174:	100b883a 	mov	r5,r2
 2000178:	01004074 	movhi	r4,257
 200017c:	213f0404 	addi	r4,r4,-1008
 2000180:	10005600 	call	1000560 <printf>
	IOWR_16DIRECT(TIMER_0_BASE, ALTERA_AVALON_TIMER_STATUS_REG, CLEAR_IRQ);
 2000184:	0007883a 	mov	r3,zero
 2000188:	00808034 	movhi	r2,512
 200018c:	108c2004 	addi	r2,r2,12416
 2000190:	10c0002d 	sthio	r3,0(r2)
	PERF_END(PERFORMANCE_COUNTER_0_BASE, PERFORMANCE_COUNTER_SEG_ISR);
 2000194:	0007883a 	mov	r3,zero
 2000198:	00808034 	movhi	r2,512
 200019c:	108c0404 	addi	r2,r2,12304
 20001a0:	10c00035 	stwio	r3,0(r2)
}
 20001a4:	0001883a 	nop
 20001a8:	e037883a 	mov	sp,fp
 20001ac:	dfc00117 	ldw	ra,4(sp)
 20001b0:	df000017 	ldw	fp,0(sp)
 20001b4:	dec00204 	addi	sp,sp,8
 20001b8:	f800283a 	ret

020001bc <alt_irq_handler>:
 * instruction is present if the macro ALT_CI_INTERRUPT_VECTOR defined.
 */

void alt_irq_handler (void) __attribute__ ((section (".exceptions")));
void alt_irq_handler (void)
{
 20001bc:	defff904 	addi	sp,sp,-28
 20001c0:	dfc00615 	stw	ra,24(sp)
 20001c4:	df000515 	stw	fp,20(sp)
 20001c8:	df000504 	addi	fp,sp,20
  
  /*
   * Notify the operating system that we are at interrupt level.
   */ 
  
  ALT_OS_INT_ENTER();
 20001cc:	0001883a 	nop
#ifndef NIOS2_EIC_PRESENT
static ALT_INLINE alt_u32 ALT_ALWAYS_INLINE alt_irq_pending (void)
{
  alt_u32 active;

  NIOS2_READ_IPENDING (active);
 20001d0:	0005313a 	rdctl	r2,ipending
 20001d4:	e0bffe15 	stw	r2,-8(fp)

  return active;
 20001d8:	e0bffe17 	ldw	r2,-8(fp)
   * Consider the case where the high priority interupt is asserted during
   * the interrupt entry sequence for a lower priority interrupt to see why
   * this is the case.
   */

  active = alt_irq_pending ();
 20001dc:	e0bffb15 	stw	r2,-20(fp)

  do
  {
    i = 0;
 20001e0:	e03ffd15 	stw	zero,-12(fp)
    mask = 1;
 20001e4:	00800044 	movi	r2,1
 20001e8:	e0bffc15 	stw	r2,-16(fp)
     * called to clear the interrupt condition.
     */

    do
    {
      if (active & mask)
 20001ec:	e0fffb17 	ldw	r3,-20(fp)
 20001f0:	e0bffc17 	ldw	r2,-16(fp)
 20001f4:	1884703a 	and	r2,r3,r2
 20001f8:	10001426 	beq	r2,zero,200024c <alt_irq_handler+0x90>
      { 
#ifdef ALT_ENHANCED_INTERRUPT_API_PRESENT
        alt_irq[i].handler(alt_irq[i].context); 
 20001fc:	00804074 	movhi	r2,257
 2000200:	108de004 	addi	r2,r2,14208
 2000204:	e0fffd17 	ldw	r3,-12(fp)
 2000208:	180690fa 	slli	r3,r3,3
 200020c:	10c5883a 	add	r2,r2,r3
 2000210:	10c00017 	ldw	r3,0(r2)
 2000214:	00804074 	movhi	r2,257
 2000218:	108de004 	addi	r2,r2,14208
 200021c:	e13ffd17 	ldw	r4,-12(fp)
 2000220:	200890fa 	slli	r4,r4,3
 2000224:	1105883a 	add	r2,r2,r4
 2000228:	10800104 	addi	r2,r2,4
 200022c:	10800017 	ldw	r2,0(r2)
 2000230:	1009883a 	mov	r4,r2
 2000234:	183ee83a 	callr	r3
#else
        alt_irq[i].handler(alt_irq[i].context, i); 
#endif
        break;
 2000238:	0001883a 	nop
#ifndef NIOS2_EIC_PRESENT
static ALT_INLINE alt_u32 ALT_ALWAYS_INLINE alt_irq_pending (void)
{
  alt_u32 active;

  NIOS2_READ_IPENDING (active);
 200023c:	0005313a 	rdctl	r2,ipending
 2000240:	e0bfff15 	stw	r2,-4(fp)

  return active;
 2000244:	e0bfff17 	ldw	r2,-4(fp)
 2000248:	00000706 	br	2000268 <alt_irq_handler+0xac>
      }
      mask <<= 1;
 200024c:	e0bffc17 	ldw	r2,-16(fp)
 2000250:	1085883a 	add	r2,r2,r2
 2000254:	e0bffc15 	stw	r2,-16(fp)
      i++;
 2000258:	e0bffd17 	ldw	r2,-12(fp)
 200025c:	10800044 	addi	r2,r2,1
 2000260:	e0bffd15 	stw	r2,-12(fp)

    } while (1);
 2000264:	003fe106 	br	20001ec <__alt_mem_TCDM+0xfffff1ec>

    active = alt_irq_pending ();
 2000268:	e0bffb15 	stw	r2,-20(fp)
    
  } while (active);
 200026c:	e0bffb17 	ldw	r2,-20(fp)
 2000270:	103fdb1e 	bne	r2,zero,20001e0 <__alt_mem_TCDM+0xfffff1e0>

  /*
   * Notify the operating system that interrupt processing is complete.
   */ 

  ALT_OS_INT_EXIT();
 2000274:	0001883a 	nop
}
 2000278:	0001883a 	nop
 200027c:	e037883a 	mov	sp,fp
 2000280:	dfc00117 	ldw	ra,4(sp)
 2000284:	df000017 	ldw	fp,0(sp)
 2000288:	dec00204 	addi	sp,sp,8
 200028c:	f800283a 	ret

02000290 <alt_instruction_exception_entry>:
 * that handler if it has been registered. Absent a handler, it will
 * break break or hang as discussed below.
 */
int 
alt_instruction_exception_entry (alt_u32 exception_pc)
{
 2000290:	defffb04 	addi	sp,sp,-20
 2000294:	dfc00415 	stw	ra,16(sp)
 2000298:	df000315 	stw	fp,12(sp)
 200029c:	df000304 	addi	fp,sp,12
 20002a0:	e13fff15 	stw	r4,-4(fp)
 * NIOS2_EXCEPTION_CAUSE_NOT_PRESENT. Your handling routine should
 * check the validity of the cause argument before proceeding.
 */
#ifdef NIOS2_HAS_EXTRA_EXCEPTION_INFO
  /* Get exception cause & "badaddr" */
  NIOS2_READ_EXCEPTION(cause);
 20002a4:	000531fa 	rdctl	r2,exception
 20002a8:	e0bffd15 	stw	r2,-12(fp)
  cause = ( (cause & NIOS2_EXCEPTION_REG_CAUSE_MASK) >>
 20002ac:	e0bffd17 	ldw	r2,-12(fp)
 20002b0:	10801f0c 	andi	r2,r2,124
 20002b4:	1004d0ba 	srli	r2,r2,2
 20002b8:	e0bffd15 	stw	r2,-12(fp)
              NIOS2_EXCEPTION_REG_CAUSE_OFST );

  NIOS2_READ_BADADDR(badaddr);
 20002bc:	0005333a 	rdctl	r2,badaddr
 20002c0:	e0bffe15 	stw	r2,-8(fp)
#else
  cause = NIOS2_EXCEPTION_CAUSE_NOT_PRESENT;
  badaddr = 0;
#endif /* NIOS2_HAS_EXTRA_EXCEPTION_INFO */

  if(alt_instruction_exception_handler) {
 20002c4:	d0a6d817 	ldw	r2,-25760(gp)
 20002c8:	10000726 	beq	r2,zero,20002e8 <alt_instruction_exception_entry+0x58>
     * Call handler. Its return value indicates whether the exception-causing
     * instruction should be re-issued. The code that called us,
     * alt_eceptions_entry.S, will look at this value and adjust the ea
     * register as necessary
     */
    return alt_instruction_exception_handler(cause, exception_pc, badaddr);
 20002cc:	d0a6d817 	ldw	r2,-25760(gp)
 20002d0:	e0fffd17 	ldw	r3,-12(fp)
 20002d4:	e1bffe17 	ldw	r6,-8(fp)
 20002d8:	e17fff17 	ldw	r5,-4(fp)
 20002dc:	1809883a 	mov	r4,r3
 20002e0:	103ee83a 	callr	r2
 20002e4:	00000206 	br	20002f0 <alt_instruction_exception_entry+0x60>
   *    (a peripheral which negates its interrupt output before its
   *    interrupt handler has been executed will cause spurious interrupts)
   */
  else {
#ifdef NIOS2_HAS_DEBUG_STUB
    NIOS2_BREAK();
 20002e8:	003da03a 	break	0
      ;
#endif /* NIOS2_HAS_DEBUG_STUB */
  }

  /* We should not get here. Remove compiler warning. */
  return NIOS2_EXCEPTION_RETURN_REISSUE_INST;
 20002ec:	0005883a 	mov	r2,zero
}
 20002f0:	e037883a 	mov	sp,fp
 20002f4:	dfc00117 	ldw	ra,4(sp)
 20002f8:	df000017 	ldw	fp,0(sp)
 20002fc:	dec00204 	addi	sp,sp,8
 2000300:	f800283a 	ret

Disassembly of section .text:

01000304 <_start>:

    /* Assume the data cache size is always a power of two. */
#if NIOS2_DCACHE_SIZE > 0x8000
    movhi r2, %hi(NIOS2_DCACHE_SIZE)
#else
    movui r2, NIOS2_DCACHE_SIZE
 1000304:	00820014 	movui	r2,2048
#endif

0:
    initd 0(r2)
 1000308:	10000033 	initd	0(r2)
#ifdef NIOS2_ECC_PRESENT
    addi r2, r2, -4
#else
    addi r2, r2, -NIOS2_DCACHE_LINE_SIZE
 100030c:	10bff804 	addi	r2,r2,-32
#endif
    bgt r2, zero, 0b
 1000310:	00bffd16 	blt	zero,r2,1000308 <__alt_mem_TCDM+0xfefff308>

    /*
     * Now that the caches are initialized, set up the stack pointer and global pointer.
     * The values provided by the linker are assumed to be correctly aligned.
     */
    movhi sp, %hi(__alt_stack_pointer)
 1000314:	06c08034 	movhi	sp,512
    ori sp, sp, %lo(__alt_stack_pointer)
 1000318:	dec00014 	ori	sp,sp,0
    movhi gp, %hi(_gp)
 100031c:	06804074 	movhi	gp,257
    ori gp, gp, %lo(_gp)
 1000320:	d6a6fd14 	ori	gp,gp,39924
 */
#ifndef ALT_SIM_OPTIMIZE
    /* Log that the BSS is about to be cleared. */
    ALT_LOG_PUTS(alt_log_msg_bss)

    movhi r2, %hi(__bss_start)
 1000324:	00804074 	movhi	r2,257
    ori r2, r2, %lo(__bss_start)
 1000328:	108dc814 	ori	r2,r2,14112

    movhi r3, %hi(__bss_end)
 100032c:	00c04074 	movhi	r3,257
    ori r3, r3, %lo(__bss_end)
 1000330:	18ce2014 	ori	r3,r3,14464

    beq r2, r3, 1f
 1000334:	10c00326 	beq	r2,r3,1000344 <_start+0x40>

0:
    stw zero, (r2)
 1000338:	10000015 	stw	zero,0(r2)
    addi r2, r2, 4
 100033c:	10800104 	addi	r2,r2,4
    bltu r2, r3, 0b
 1000340:	10fffd36 	bltu	r2,r3,1000338 <__alt_mem_TCDM+0xfefff338>
     * section aren't defined until alt_load() has been called).
     */
    mov   et, zero
#endif

    call alt_load
 1000344:	100d33c0 	call	100d33c <alt_load>

    /* Log that alt_main is about to be called. */
    ALT_LOG_PUTS(alt_log_msg_alt_main)

    /* Call the C entry point. It should never return. */
    call alt_main
 1000348:	100d4d00 	call	100d4d0 <alt_main>

0100034c <alt_after_alt_main>:

    /* Wait in infinite loop in case alt_main does return. */
alt_after_alt_main:
    br alt_after_alt_main
 100034c:	003fff06 	br	100034c <__alt_mem_TCDM+0xfefff34c>

01000350 <main>:

__attribute__((section(".exceptions")))static void handle_timerIRQ(
		void* context, alt_u32 id);
static void initPioLeds(void);

int main(void) {
 1000350:	defff904 	addi	sp,sp,-28
 1000354:	dfc00615 	stw	ra,24(sp)
 1000358:	df000515 	stw	fp,20(sp)
 100035c:	df000504 	addi	fp,sp,20
	Counter downTimer = { .value = 0, .isNew = false };
 1000360:	e03ffe15 	stw	zero,-8(fp)
 1000364:	e03fff05 	stb	zero,-4(fp)

	alt_irq_context statusISR;

	puts("Reset performance counter");
 1000368:	01004074 	movhi	r4,257
 100036c:	213f0904 	addi	r4,r4,-988
 1000370:	100065c0 	call	100065c <puts>
	PERF_RESET(PERFORMANCE_COUNTER_0_BASE);
 1000374:	00c00044 	movi	r3,1
 1000378:	00808034 	movhi	r2,512
 100037c:	108c0004 	addi	r2,r2,12288
 1000380:	10c00035 	stwio	r3,0(r2)

	puts("IRQs disabled.");
 1000384:	01004074 	movhi	r4,257
 1000388:	213f1004 	addi	r4,r4,-960
 100038c:	100065c0 	call	100065c <puts>
static ALT_INLINE alt_irq_context ALT_ALWAYS_INLINE 
       alt_irq_disable_all (void)
{
  alt_irq_context context;

  NIOS2_READ_STATUS (context);
 1000390:	0005303a 	rdctl	r2,status
 1000394:	e0bffc15 	stw	r2,-16(fp)

  NIOS2_WRITE_STATUS (context & ~NIOS2_STATUS_PIE_MSK);
 1000398:	e0fffc17 	ldw	r3,-16(fp)
 100039c:	00bfff84 	movi	r2,-2
 10003a0:	1884703a 	and	r2,r3,r2
 10003a4:	1001703a 	wrctl	status,r2
  
  return context;
 10003a8:	e0bffc17 	ldw	r2,-16(fp)
	statusISR = alt_irq_disable_all();
 10003ac:	e0bffb15 	stw	r2,-20(fp)

	puts("Register timer IRQ handler...");
 10003b0:	01004074 	movhi	r4,257
 10003b4:	213f1404 	addi	r4,r4,-944
 10003b8:	100065c0 	call	100065c <puts>
	alt_irq_register(TIMER_0_IRQ, &downTimer, (alt_isr_func) handle_timerIRQ);
 10003bc:	e0bffe04 	addi	r2,fp,-8
 10003c0:	01808034 	movhi	r6,512
 10003c4:	31803f04 	addi	r6,r6,252
 10003c8:	100b883a 	mov	r5,r2
 10003cc:	01000044 	movi	r4,1
 10003d0:	100d0740 	call	100d074 <alt_irq_register>

	puts("Clear pending timer IRQs...");
 10003d4:	01004074 	movhi	r4,257
 10003d8:	213f1c04 	addi	r4,r4,-912
 10003dc:	100065c0 	call	100065c <puts>
	IOWR_16DIRECT(TIMER_0_BASE, ALTERA_AVALON_TIMER_STATUS_REG, CLEAR_IRQ);
 10003e0:	0007883a 	mov	r3,zero
 10003e4:	00808034 	movhi	r2,512
 10003e8:	108c2004 	addi	r2,r2,12416
 10003ec:	10c0002d 	sthio	r3,0(r2)

	puts("Init PIO LEDs");
 10003f0:	01004074 	movhi	r4,257
 10003f4:	213f2304 	addi	r4,r4,-884
 10003f8:	100065c0 	call	100065c <puts>
	initPioLeds();
 10003fc:	10004f00 	call	10004f0 <initPioLeds>

	puts("Configure timer...");
 1000400:	01004074 	movhi	r4,257
 1000404:	213f2704 	addi	r4,r4,-868
 1000408:	100065c0 	call	100065c <puts>
	IOWR_16DIRECT(TIMER_0_BASE, ALTERA_AVALON_TIMER_CONTROL_REG,
 100040c:	00c001c4 	movi	r3,7
 1000410:	00808034 	movhi	r2,512
 1000414:	108c2044 	addi	r2,r2,12417
 1000418:	10c0002d 	sthio	r3,0(r2)
			ALTERA_AVALON_TIMER_CONTROL_ITO_MSK
					| ALTERA_AVALON_TIMER_CONTROL_CONT_MSK
					| ALTERA_AVALON_TIMER_CONTROL_START_MSK);

	puts("Timer initialised and started!");
 100041c:	01004074 	movhi	r4,257
 1000420:	213f2c04 	addi	r4,r4,-848
 1000424:	100065c0 	call	100065c <puts>

	puts("Start measuring with performance counter");
 1000428:	01004074 	movhi	r4,257
 100042c:	213f3404 	addi	r4,r4,-816
 1000430:	100065c0 	call	100065c <puts>
	PERF_START_MEASURING(PERFORMANCE_COUNTER_0_BASE);
 1000434:	0007883a 	mov	r3,zero
 1000438:	00808034 	movhi	r2,512
 100043c:	108c0104 	addi	r2,r2,12292
 1000440:	10c00035 	stwio	r3,0(r2)

	puts("Enable all IRQs");
 1000444:	01004074 	movhi	r4,257
 1000448:	213f3f04 	addi	r4,r4,-772
 100044c:	100065c0 	call	100065c <puts>
 1000450:	e0bffb17 	ldw	r2,-20(fp)
 1000454:	e0bffd15 	stw	r2,-12(fp)
  status &= ~NIOS2_STATUS_PIE_MSK;
  status |= (context & NIOS2_STATUS_PIE_MSK);
  
  NIOS2_WRITE_STATUS (status);
#else
  NIOS2_WRITE_STATUS (context);
 1000458:	e0bffd17 	ldw	r2,-12(fp)
 100045c:	1001703a 	wrctl	status,r2
	alt_irq_enable_all(statusISR);

	while (downTimer.value < COUNT_MAX) {
 1000460:	00000b06 	br	1000490 <main+0x140>
		if (downTimer.isNew) {
 1000464:	e0bfff03 	ldbu	r2,-4(fp)
 1000468:	10803fcc 	andi	r2,r2,255
 100046c:	10000726 	beq	r2,zero,100048c <main+0x13c>
			printf("New counter value: %lu\n", (alt_u32) downTimer.value);
 1000470:	e0bffe17 	ldw	r2,-8(fp)
 1000474:	100b883a 	mov	r5,r2
 1000478:	01004074 	movhi	r4,257
 100047c:	213f4304 	addi	r4,r4,-756
 1000480:	10005600 	call	1000560 <printf>
			downTimer.isNew = false;
 1000484:	e03fff05 	stb	zero,-4(fp)
 1000488:	00000106 	br	1000490 <main+0x140>
		} else {
			asm volatile("nop");
 100048c:	0001883a 	nop
	PERF_START_MEASURING(PERFORMANCE_COUNTER_0_BASE);

	puts("Enable all IRQs");
	alt_irq_enable_all(statusISR);

	while (downTimer.value < COUNT_MAX) {
 1000490:	e0bffe17 	ldw	r2,-8(fp)
 1000494:	1080fa30 	cmpltui	r2,r2,1000
 1000498:	103ff21e 	bne	r2,zero,1000464 <__alt_mem_TCDM+0xfefff464>
		} else {
			asm volatile("nop");
		}
	}

	puts("Stop measuring with performance counter");
 100049c:	01004074 	movhi	r4,257
 10004a0:	213f4904 	addi	r4,r4,-732
 10004a4:	100065c0 	call	100065c <puts>
	PERF_STOP_MEASURING(PERFORMANCE_COUNTER_0_BASE);
 10004a8:	0007883a 	mov	r3,zero
 10004ac:	00808034 	movhi	r2,512
 10004b0:	108c0004 	addi	r2,r2,12288
 10004b4:	10c00035 	stwio	r3,0(r2)
	perf_print_formatted_report(PERFORMANCE_COUNTER_0_BASE, alt_get_cpu_freq(),
 10004b8:	100e5c80 	call	100e5c8 <alt_get_cpu_freq>
 10004bc:	01c04074 	movhi	r7,257
 10004c0:	39ff5304 	addi	r7,r7,-692
 10004c4:	01800044 	movi	r6,1
 10004c8:	100b883a 	mov	r5,r2
 10004cc:	01008034 	movhi	r4,512
 10004d0:	210c0004 	addi	r4,r4,12288
 10004d4:	100e6e00 	call	100e6e0 <perf_print_formatted_report>
			1, "ISR");
	return 0;
 10004d8:	0005883a 	mov	r2,zero
}
 10004dc:	e037883a 	mov	sp,fp
 10004e0:	dfc00117 	ldw	ra,4(sp)
 10004e4:	df000017 	ldw	fp,0(sp)
 10004e8:	dec00204 	addi	sp,sp,8
 10004ec:	f800283a 	ret

010004f0 <initPioLeds>:
	IOWR_16DIRECT(TIMER_0_BASE, ALTERA_AVALON_TIMER_STATUS_REG, CLEAR_IRQ);
	PERF_END(PERFORMANCE_COUNTER_0_BASE, PERFORMANCE_COUNTER_SEG_ISR);
}

static void initPioLeds(void)
{
 10004f0:	deffff04 	addi	sp,sp,-4
 10004f4:	df000015 	stw	fp,0(sp)
 10004f8:	d839883a 	mov	fp,sp
	// Configure all pins as outputs
	IOWR_8DIRECT(MYPIO_LEDS_BASE, 0, 0xFFU);
 10004fc:	00ffffc4 	movi	r3,-1
 1000500:	00808034 	movhi	r2,512
 1000504:	108c2e04 	addi	r2,r2,12472
 1000508:	10c00025 	stbio	r3,0(r2)
	IOWR_8DIRECT(MYPIO_LEDS_BASE, 0x02U, 0x00U);
 100050c:	0007883a 	mov	r3,zero
 1000510:	00808034 	movhi	r2,512
 1000514:	108c2e84 	addi	r2,r2,12474
 1000518:	10c00025 	stbio	r3,0(r2)

}
 100051c:	0001883a 	nop
 1000520:	e037883a 	mov	sp,fp
 1000524:	df000017 	ldw	fp,0(sp)
 1000528:	dec00104 	addi	sp,sp,4
 100052c:	f800283a 	ret

01000530 <_printf_r>:
 1000530:	defffd04 	addi	sp,sp,-12
 1000534:	2805883a 	mov	r2,r5
 1000538:	dfc00015 	stw	ra,0(sp)
 100053c:	d9800115 	stw	r6,4(sp)
 1000540:	d9c00215 	stw	r7,8(sp)
 1000544:	21400217 	ldw	r5,8(r4)
 1000548:	d9c00104 	addi	r7,sp,4
 100054c:	100d883a 	mov	r6,r2
 1000550:	10007080 	call	1000708 <___vfprintf_internal_r>
 1000554:	dfc00017 	ldw	ra,0(sp)
 1000558:	dec00304 	addi	sp,sp,12
 100055c:	f800283a 	ret

01000560 <printf>:
 1000560:	defffc04 	addi	sp,sp,-16
 1000564:	dfc00015 	stw	ra,0(sp)
 1000568:	d9400115 	stw	r5,4(sp)
 100056c:	d9800215 	stw	r6,8(sp)
 1000570:	d9c00315 	stw	r7,12(sp)
 1000574:	00804074 	movhi	r2,257
 1000578:	1086fe04 	addi	r2,r2,7160
 100057c:	10800017 	ldw	r2,0(r2)
 1000580:	200b883a 	mov	r5,r4
 1000584:	d9800104 	addi	r6,sp,4
 1000588:	11000217 	ldw	r4,8(r2)
 100058c:	10029000 	call	1002900 <__vfprintf_internal>
 1000590:	dfc00017 	ldw	ra,0(sp)
 1000594:	dec00404 	addi	sp,sp,16
 1000598:	f800283a 	ret

0100059c <_puts_r>:
 100059c:	defff604 	addi	sp,sp,-40
 10005a0:	dc000715 	stw	r16,28(sp)
 10005a4:	2021883a 	mov	r16,r4
 10005a8:	2809883a 	mov	r4,r5
 10005ac:	dc400815 	stw	r17,32(sp)
 10005b0:	dfc00915 	stw	ra,36(sp)
 10005b4:	2823883a 	mov	r17,r5
 10005b8:	10006700 	call	1000670 <strlen>
 10005bc:	10c00044 	addi	r3,r2,1
 10005c0:	d8800115 	stw	r2,4(sp)
 10005c4:	00804074 	movhi	r2,257
 10005c8:	10bf5404 	addi	r2,r2,-688
 10005cc:	d8800215 	stw	r2,8(sp)
 10005d0:	00800044 	movi	r2,1
 10005d4:	d8800315 	stw	r2,12(sp)
 10005d8:	00800084 	movi	r2,2
 10005dc:	dc400015 	stw	r17,0(sp)
 10005e0:	d8c00615 	stw	r3,24(sp)
 10005e4:	dec00415 	stw	sp,16(sp)
 10005e8:	d8800515 	stw	r2,20(sp)
 10005ec:	80000226 	beq	r16,zero,10005f8 <_puts_r+0x5c>
 10005f0:	80800e17 	ldw	r2,56(r16)
 10005f4:	10001426 	beq	r2,zero,1000648 <_puts_r+0xac>
 10005f8:	81400217 	ldw	r5,8(r16)
 10005fc:	2880030b 	ldhu	r2,12(r5)
 1000600:	10c8000c 	andi	r3,r2,8192
 1000604:	1800061e 	bne	r3,zero,1000620 <_puts_r+0x84>
 1000608:	29001917 	ldw	r4,100(r5)
 100060c:	00f7ffc4 	movi	r3,-8193
 1000610:	10880014 	ori	r2,r2,8192
 1000614:	20c6703a 	and	r3,r4,r3
 1000618:	2880030d 	sth	r2,12(r5)
 100061c:	28c01915 	stw	r3,100(r5)
 1000620:	d9800404 	addi	r6,sp,16
 1000624:	8009883a 	mov	r4,r16
 1000628:	1004e300 	call	1004e30 <__sfvwrite_r>
 100062c:	1000091e 	bne	r2,zero,1000654 <_puts_r+0xb8>
 1000630:	00800284 	movi	r2,10
 1000634:	dfc00917 	ldw	ra,36(sp)
 1000638:	dc400817 	ldw	r17,32(sp)
 100063c:	dc000717 	ldw	r16,28(sp)
 1000640:	dec00a04 	addi	sp,sp,40
 1000644:	f800283a 	ret
 1000648:	8009883a 	mov	r4,r16
 100064c:	10049ac0 	call	10049ac <__sinit>
 1000650:	003fe906 	br	10005f8 <__alt_mem_TCDM+0xfefff5f8>
 1000654:	00bfffc4 	movi	r2,-1
 1000658:	003ff606 	br	1000634 <__alt_mem_TCDM+0xfefff634>

0100065c <puts>:
 100065c:	00804074 	movhi	r2,257
 1000660:	1086fe04 	addi	r2,r2,7160
 1000664:	200b883a 	mov	r5,r4
 1000668:	11000017 	ldw	r4,0(r2)
 100066c:	100059c1 	jmpi	100059c <_puts_r>

01000670 <strlen>:
 1000670:	208000cc 	andi	r2,r4,3
 1000674:	10002026 	beq	r2,zero,10006f8 <strlen+0x88>
 1000678:	20800007 	ldb	r2,0(r4)
 100067c:	10002026 	beq	r2,zero,1000700 <strlen+0x90>
 1000680:	2005883a 	mov	r2,r4
 1000684:	00000206 	br	1000690 <strlen+0x20>
 1000688:	10c00007 	ldb	r3,0(r2)
 100068c:	18001826 	beq	r3,zero,10006f0 <strlen+0x80>
 1000690:	10800044 	addi	r2,r2,1
 1000694:	10c000cc 	andi	r3,r2,3
 1000698:	183ffb1e 	bne	r3,zero,1000688 <__alt_mem_TCDM+0xfefff688>
 100069c:	10c00017 	ldw	r3,0(r2)
 10006a0:	01ffbff4 	movhi	r7,65279
 10006a4:	39ffbfc4 	addi	r7,r7,-257
 10006a8:	00ca303a 	nor	r5,zero,r3
 10006ac:	01a02074 	movhi	r6,32897
 10006b0:	19c7883a 	add	r3,r3,r7
 10006b4:	31a02004 	addi	r6,r6,-32640
 10006b8:	1946703a 	and	r3,r3,r5
 10006bc:	1986703a 	and	r3,r3,r6
 10006c0:	1800091e 	bne	r3,zero,10006e8 <strlen+0x78>
 10006c4:	10800104 	addi	r2,r2,4
 10006c8:	10c00017 	ldw	r3,0(r2)
 10006cc:	19cb883a 	add	r5,r3,r7
 10006d0:	00c6303a 	nor	r3,zero,r3
 10006d4:	28c6703a 	and	r3,r5,r3
 10006d8:	1986703a 	and	r3,r3,r6
 10006dc:	183ff926 	beq	r3,zero,10006c4 <__alt_mem_TCDM+0xfefff6c4>
 10006e0:	00000106 	br	10006e8 <strlen+0x78>
 10006e4:	10800044 	addi	r2,r2,1
 10006e8:	10c00007 	ldb	r3,0(r2)
 10006ec:	183ffd1e 	bne	r3,zero,10006e4 <__alt_mem_TCDM+0xfefff6e4>
 10006f0:	1105c83a 	sub	r2,r2,r4
 10006f4:	f800283a 	ret
 10006f8:	2005883a 	mov	r2,r4
 10006fc:	003fe706 	br	100069c <__alt_mem_TCDM+0xfefff69c>
 1000700:	0005883a 	mov	r2,zero
 1000704:	f800283a 	ret

01000708 <___vfprintf_internal_r>:
 1000708:	deffb804 	addi	sp,sp,-288
 100070c:	dfc04715 	stw	ra,284(sp)
 1000710:	ddc04515 	stw	r23,276(sp)
 1000714:	dd404315 	stw	r21,268(sp)
 1000718:	d9002c15 	stw	r4,176(sp)
 100071c:	282f883a 	mov	r23,r5
 1000720:	302b883a 	mov	r21,r6
 1000724:	d9c02d15 	stw	r7,180(sp)
 1000728:	df004615 	stw	fp,280(sp)
 100072c:	dd804415 	stw	r22,272(sp)
 1000730:	dd004215 	stw	r20,264(sp)
 1000734:	dcc04115 	stw	r19,260(sp)
 1000738:	dc804015 	stw	r18,256(sp)
 100073c:	dc403f15 	stw	r17,252(sp)
 1000740:	dc003e15 	stw	r16,248(sp)
 1000744:	10055200 	call	1005520 <_localeconv_r>
 1000748:	10800017 	ldw	r2,0(r2)
 100074c:	1009883a 	mov	r4,r2
 1000750:	d8803415 	stw	r2,208(sp)
 1000754:	10006700 	call	1000670 <strlen>
 1000758:	d8803715 	stw	r2,220(sp)
 100075c:	d8802c17 	ldw	r2,176(sp)
 1000760:	10000226 	beq	r2,zero,100076c <___vfprintf_internal_r+0x64>
 1000764:	10800e17 	ldw	r2,56(r2)
 1000768:	1000f926 	beq	r2,zero,1000b50 <___vfprintf_internal_r+0x448>
 100076c:	b880030b 	ldhu	r2,12(r23)
 1000770:	10c8000c 	andi	r3,r2,8192
 1000774:	1800061e 	bne	r3,zero,1000790 <___vfprintf_internal_r+0x88>
 1000778:	b9001917 	ldw	r4,100(r23)
 100077c:	00f7ffc4 	movi	r3,-8193
 1000780:	10880014 	ori	r2,r2,8192
 1000784:	20c6703a 	and	r3,r4,r3
 1000788:	b880030d 	sth	r2,12(r23)
 100078c:	b8c01915 	stw	r3,100(r23)
 1000790:	10c0020c 	andi	r3,r2,8
 1000794:	1800c126 	beq	r3,zero,1000a9c <___vfprintf_internal_r+0x394>
 1000798:	b8c00417 	ldw	r3,16(r23)
 100079c:	1800bf26 	beq	r3,zero,1000a9c <___vfprintf_internal_r+0x394>
 10007a0:	1080068c 	andi	r2,r2,26
 10007a4:	00c00284 	movi	r3,10
 10007a8:	10c0c426 	beq	r2,r3,1000abc <___vfprintf_internal_r+0x3b4>
 10007ac:	d8c00404 	addi	r3,sp,16
 10007b0:	05004074 	movhi	r20,257
 10007b4:	d9001e04 	addi	r4,sp,120
 10007b8:	a53f6584 	addi	r20,r20,-618
 10007bc:	d8c01e15 	stw	r3,120(sp)
 10007c0:	d8002015 	stw	zero,128(sp)
 10007c4:	d8001f15 	stw	zero,124(sp)
 10007c8:	d8003315 	stw	zero,204(sp)
 10007cc:	d8003615 	stw	zero,216(sp)
 10007d0:	d8003815 	stw	zero,224(sp)
 10007d4:	1811883a 	mov	r8,r3
 10007d8:	d8003915 	stw	zero,228(sp)
 10007dc:	d8003a15 	stw	zero,232(sp)
 10007e0:	d8002f15 	stw	zero,188(sp)
 10007e4:	d9002815 	stw	r4,160(sp)
 10007e8:	a8800007 	ldb	r2,0(r21)
 10007ec:	10027b26 	beq	r2,zero,10011dc <___vfprintf_internal_r+0xad4>
 10007f0:	00c00944 	movi	r3,37
 10007f4:	a821883a 	mov	r16,r21
 10007f8:	10c0021e 	bne	r2,r3,1000804 <___vfprintf_internal_r+0xfc>
 10007fc:	00001406 	br	1000850 <___vfprintf_internal_r+0x148>
 1000800:	10c00326 	beq	r2,r3,1000810 <___vfprintf_internal_r+0x108>
 1000804:	84000044 	addi	r16,r16,1
 1000808:	80800007 	ldb	r2,0(r16)
 100080c:	103ffc1e 	bne	r2,zero,1000800 <__alt_mem_TCDM+0xfefff800>
 1000810:	8563c83a 	sub	r17,r16,r21
 1000814:	88000e26 	beq	r17,zero,1000850 <___vfprintf_internal_r+0x148>
 1000818:	d8c02017 	ldw	r3,128(sp)
 100081c:	d8801f17 	ldw	r2,124(sp)
 1000820:	45400015 	stw	r21,0(r8)
 1000824:	1c47883a 	add	r3,r3,r17
 1000828:	10800044 	addi	r2,r2,1
 100082c:	d8c02015 	stw	r3,128(sp)
 1000830:	44400115 	stw	r17,4(r8)
 1000834:	d8801f15 	stw	r2,124(sp)
 1000838:	00c001c4 	movi	r3,7
 100083c:	1880a716 	blt	r3,r2,1000adc <___vfprintf_internal_r+0x3d4>
 1000840:	42000204 	addi	r8,r8,8
 1000844:	d9402f17 	ldw	r5,188(sp)
 1000848:	2c4b883a 	add	r5,r5,r17
 100084c:	d9402f15 	stw	r5,188(sp)
 1000850:	80800007 	ldb	r2,0(r16)
 1000854:	1000a826 	beq	r2,zero,1000af8 <___vfprintf_internal_r+0x3f0>
 1000858:	84400047 	ldb	r17,1(r16)
 100085c:	00bfffc4 	movi	r2,-1
 1000860:	85400044 	addi	r21,r16,1
 1000864:	d8002785 	stb	zero,158(sp)
 1000868:	0007883a 	mov	r3,zero
 100086c:	000f883a 	mov	r7,zero
 1000870:	d8802915 	stw	r2,164(sp)
 1000874:	d8003115 	stw	zero,196(sp)
 1000878:	0025883a 	mov	r18,zero
 100087c:	01401604 	movi	r5,88
 1000880:	01800244 	movi	r6,9
 1000884:	02800a84 	movi	r10,42
 1000888:	02401b04 	movi	r9,108
 100088c:	ad400044 	addi	r21,r21,1
 1000890:	88bff804 	addi	r2,r17,-32
 1000894:	28830436 	bltu	r5,r2,10014a8 <___vfprintf_internal_r+0xda0>
 1000898:	100490ba 	slli	r2,r2,2
 100089c:	01004034 	movhi	r4,256
 10008a0:	21022c04 	addi	r4,r4,2224
 10008a4:	1105883a 	add	r2,r2,r4
 10008a8:	10800017 	ldw	r2,0(r2)
 10008ac:	1000683a 	jmp	r2
 10008b0:	010013c8 	cmpgei	r4,zero,79
 10008b4:	010014a8 	cmpgeui	r4,zero,82
 10008b8:	010014a8 	cmpgeui	r4,zero,82
 10008bc:	010013e8 	cmpgeui	r4,zero,79
 10008c0:	010014a8 	cmpgeui	r4,zero,82
 10008c4:	010014a8 	cmpgeui	r4,zero,82
 10008c8:	010014a8 	cmpgeui	r4,zero,82
 10008cc:	010014a8 	cmpgeui	r4,zero,82
 10008d0:	010014a8 	cmpgeui	r4,zero,82
 10008d4:	010014a8 	cmpgeui	r4,zero,82
 10008d8:	01000b5c 	xori	r4,zero,45
 10008dc:	01001304 	movi	r4,76
 10008e0:	010014a8 	cmpgeui	r4,zero,82
 10008e4:	01000a24 	muli	r4,zero,40
 10008e8:	01000b84 	movi	r4,46
 10008ec:	010014a8 	cmpgeui	r4,zero,82
 10008f0:	01000bc4 	movi	r4,47
 10008f4:	01000bd0 	cmplti	r4,zero,47
 10008f8:	01000bd0 	cmplti	r4,zero,47
 10008fc:	01000bd0 	cmplti	r4,zero,47
 1000900:	01000bd0 	cmplti	r4,zero,47
 1000904:	01000bd0 	cmplti	r4,zero,47
 1000908:	01000bd0 	cmplti	r4,zero,47
 100090c:	01000bd0 	cmplti	r4,zero,47
 1000910:	01000bd0 	cmplti	r4,zero,47
 1000914:	01000bd0 	cmplti	r4,zero,47
 1000918:	010014a8 	cmpgeui	r4,zero,82
 100091c:	010014a8 	cmpgeui	r4,zero,82
 1000920:	010014a8 	cmpgeui	r4,zero,82
 1000924:	010014a8 	cmpgeui	r4,zero,82
 1000928:	010014a8 	cmpgeui	r4,zero,82
 100092c:	010014a8 	cmpgeui	r4,zero,82
 1000930:	010014a8 	cmpgeui	r4,zero,82
 1000934:	010014a8 	cmpgeui	r4,zero,82
 1000938:	010014a8 	cmpgeui	r4,zero,82
 100093c:	010014a8 	cmpgeui	r4,zero,82
 1000940:	01000c04 	movi	r4,48
 1000944:	01000cc0 	call	1000cc <__reset-0xefff34>
 1000948:	010014a8 	cmpgeui	r4,zero,82
 100094c:	01000cc0 	call	1000cc <__reset-0xefff34>
 1000950:	010014a8 	cmpgeui	r4,zero,82
 1000954:	010014a8 	cmpgeui	r4,zero,82
 1000958:	010014a8 	cmpgeui	r4,zero,82
 100095c:	010014a8 	cmpgeui	r4,zero,82
 1000960:	01000d60 	cmpeqi	r4,zero,53
 1000964:	010014a8 	cmpgeui	r4,zero,82
 1000968:	010014a8 	cmpgeui	r4,zero,82
 100096c:	01000d6c 	andhi	r4,zero,53
 1000970:	010014a8 	cmpgeui	r4,zero,82
 1000974:	010014a8 	cmpgeui	r4,zero,82
 1000978:	010014a8 	cmpgeui	r4,zero,82
 100097c:	010014a8 	cmpgeui	r4,zero,82
 1000980:	010014a8 	cmpgeui	r4,zero,82
 1000984:	010011e4 	muli	r4,zero,71
 1000988:	010014a8 	cmpgeui	r4,zero,82
 100098c:	010014a8 	cmpgeui	r4,zero,82
 1000990:	01001244 	movi	r4,73
 1000994:	010014a8 	cmpgeui	r4,zero,82
 1000998:	010014a8 	cmpgeui	r4,zero,82
 100099c:	010014a8 	cmpgeui	r4,zero,82
 10009a0:	010014a8 	cmpgeui	r4,zero,82
 10009a4:	010014a8 	cmpgeui	r4,zero,82
 10009a8:	010014a8 	cmpgeui	r4,zero,82
 10009ac:	010014a8 	cmpgeui	r4,zero,82
 10009b0:	010014a8 	cmpgeui	r4,zero,82
 10009b4:	010014a8 	cmpgeui	r4,zero,82
 10009b8:	010014a8 	cmpgeui	r4,zero,82
 10009bc:	01001454 	movui	r4,81
 10009c0:	010013f4 	movhi	r4,79
 10009c4:	01000cc0 	call	1000cc <__reset-0xefff34>
 10009c8:	01000cc0 	call	1000cc <__reset-0xefff34>
 10009cc:	01000cc0 	call	1000cc <__reset-0xefff34>
 10009d0:	01001404 	movi	r4,80
 10009d4:	010013f4 	movhi	r4,79
 10009d8:	010014a8 	cmpgeui	r4,zero,82
 10009dc:	010014a8 	cmpgeui	r4,zero,82
 10009e0:	01001410 	cmplti	r4,zero,80
 10009e4:	010014a8 	cmpgeui	r4,zero,82
 10009e8:	01001420 	cmpeqi	r4,zero,80
 10009ec:	010012f4 	movhi	r4,75
 10009f0:	01000a30 	cmpltui	r4,zero,40
 10009f4:	01001314 	movui	r4,76
 10009f8:	010014a8 	cmpgeui	r4,zero,82
 10009fc:	01001320 	cmpeqi	r4,zero,76
 1000a00:	010014a8 	cmpgeui	r4,zero,82
 1000a04:	0100137c 	xorhi	r4,zero,77
 1000a08:	010014a8 	cmpgeui	r4,zero,82
 1000a0c:	010014a8 	cmpgeui	r4,zero,82
 1000a10:	0100138c 	andi	r4,zero,78
 1000a14:	d9003117 	ldw	r4,196(sp)
 1000a18:	d8802d15 	stw	r2,180(sp)
 1000a1c:	0109c83a 	sub	r4,zero,r4
 1000a20:	d9003115 	stw	r4,196(sp)
 1000a24:	94800114 	ori	r18,r18,4
 1000a28:	ac400007 	ldb	r17,0(r21)
 1000a2c:	003f9706 	br	100088c <__alt_mem_TCDM+0xfefff88c>
 1000a30:	00800c04 	movi	r2,48
 1000a34:	d9002d17 	ldw	r4,180(sp)
 1000a38:	d9402917 	ldw	r5,164(sp)
 1000a3c:	d8802705 	stb	r2,156(sp)
 1000a40:	00801e04 	movi	r2,120
 1000a44:	d8802745 	stb	r2,157(sp)
 1000a48:	d8002785 	stb	zero,158(sp)
 1000a4c:	20c00104 	addi	r3,r4,4
 1000a50:	24c00017 	ldw	r19,0(r4)
 1000a54:	002d883a 	mov	r22,zero
 1000a58:	90800094 	ori	r2,r18,2
 1000a5c:	28029a16 	blt	r5,zero,10014c8 <___vfprintf_internal_r+0xdc0>
 1000a60:	00bfdfc4 	movi	r2,-129
 1000a64:	90a4703a 	and	r18,r18,r2
 1000a68:	d8c02d15 	stw	r3,180(sp)
 1000a6c:	94800094 	ori	r18,r18,2
 1000a70:	9802871e 	bne	r19,zero,1001490 <___vfprintf_internal_r+0xd88>
 1000a74:	00804074 	movhi	r2,257
 1000a78:	10bf5e04 	addi	r2,r2,-648
 1000a7c:	d8803915 	stw	r2,228(sp)
 1000a80:	04401e04 	movi	r17,120
 1000a84:	d8802917 	ldw	r2,164(sp)
 1000a88:	0039883a 	mov	fp,zero
 1000a8c:	1001e926 	beq	r2,zero,1001234 <___vfprintf_internal_r+0xb2c>
 1000a90:	0027883a 	mov	r19,zero
 1000a94:	002d883a 	mov	r22,zero
 1000a98:	00020506 	br	10012b0 <___vfprintf_internal_r+0xba8>
 1000a9c:	d9002c17 	ldw	r4,176(sp)
 1000aa0:	b80b883a 	mov	r5,r23
 1000aa4:	10029d80 	call	10029d8 <__swsetup_r>
 1000aa8:	1005ac1e 	bne	r2,zero,100215c <___vfprintf_internal_r+0x1a54>
 1000aac:	b880030b 	ldhu	r2,12(r23)
 1000ab0:	00c00284 	movi	r3,10
 1000ab4:	1080068c 	andi	r2,r2,26
 1000ab8:	10ff3c1e 	bne	r2,r3,10007ac <__alt_mem_TCDM+0xfefff7ac>
 1000abc:	b880038f 	ldh	r2,14(r23)
 1000ac0:	103f3a16 	blt	r2,zero,10007ac <__alt_mem_TCDM+0xfefff7ac>
 1000ac4:	d9c02d17 	ldw	r7,180(sp)
 1000ac8:	d9002c17 	ldw	r4,176(sp)
 1000acc:	a80d883a 	mov	r6,r21
 1000ad0:	b80b883a 	mov	r5,r23
 1000ad4:	100291c0 	call	100291c <__sbprintf>
 1000ad8:	00001106 	br	1000b20 <___vfprintf_internal_r+0x418>
 1000adc:	d9002c17 	ldw	r4,176(sp)
 1000ae0:	d9801e04 	addi	r6,sp,120
 1000ae4:	b80b883a 	mov	r5,r23
 1000ae8:	1007d040 	call	1007d04 <__sprint_r>
 1000aec:	1000081e 	bne	r2,zero,1000b10 <___vfprintf_internal_r+0x408>
 1000af0:	da000404 	addi	r8,sp,16
 1000af4:	003f5306 	br	1000844 <__alt_mem_TCDM+0xfefff844>
 1000af8:	d8802017 	ldw	r2,128(sp)
 1000afc:	10000426 	beq	r2,zero,1000b10 <___vfprintf_internal_r+0x408>
 1000b00:	d9002c17 	ldw	r4,176(sp)
 1000b04:	d9801e04 	addi	r6,sp,120
 1000b08:	b80b883a 	mov	r5,r23
 1000b0c:	1007d040 	call	1007d04 <__sprint_r>
 1000b10:	b880030b 	ldhu	r2,12(r23)
 1000b14:	1080100c 	andi	r2,r2,64
 1000b18:	1005901e 	bne	r2,zero,100215c <___vfprintf_internal_r+0x1a54>
 1000b1c:	d8802f17 	ldw	r2,188(sp)
 1000b20:	dfc04717 	ldw	ra,284(sp)
 1000b24:	df004617 	ldw	fp,280(sp)
 1000b28:	ddc04517 	ldw	r23,276(sp)
 1000b2c:	dd804417 	ldw	r22,272(sp)
 1000b30:	dd404317 	ldw	r21,268(sp)
 1000b34:	dd004217 	ldw	r20,264(sp)
 1000b38:	dcc04117 	ldw	r19,260(sp)
 1000b3c:	dc804017 	ldw	r18,256(sp)
 1000b40:	dc403f17 	ldw	r17,252(sp)
 1000b44:	dc003e17 	ldw	r16,248(sp)
 1000b48:	dec04804 	addi	sp,sp,288
 1000b4c:	f800283a 	ret
 1000b50:	d9002c17 	ldw	r4,176(sp)
 1000b54:	10049ac0 	call	10049ac <__sinit>
 1000b58:	003f0406 	br	100076c <__alt_mem_TCDM+0xfefff76c>
 1000b5c:	d8802d17 	ldw	r2,180(sp)
 1000b60:	d9002d17 	ldw	r4,180(sp)
 1000b64:	10800017 	ldw	r2,0(r2)
 1000b68:	d8803115 	stw	r2,196(sp)
 1000b6c:	20800104 	addi	r2,r4,4
 1000b70:	d9003117 	ldw	r4,196(sp)
 1000b74:	203fa716 	blt	r4,zero,1000a14 <__alt_mem_TCDM+0xfefffa14>
 1000b78:	d8802d15 	stw	r2,180(sp)
 1000b7c:	ac400007 	ldb	r17,0(r21)
 1000b80:	003f4206 	br	100088c <__alt_mem_TCDM+0xfefff88c>
 1000b84:	ac400007 	ldb	r17,0(r21)
 1000b88:	aac00044 	addi	r11,r21,1
 1000b8c:	8a872826 	beq	r17,r10,1002830 <___vfprintf_internal_r+0x2128>
 1000b90:	88bff404 	addi	r2,r17,-48
 1000b94:	0009883a 	mov	r4,zero
 1000b98:	30867d36 	bltu	r6,r2,1002590 <___vfprintf_internal_r+0x1e88>
 1000b9c:	5c400007 	ldb	r17,0(r11)
 1000ba0:	210002a4 	muli	r4,r4,10
 1000ba4:	5d400044 	addi	r21,r11,1
 1000ba8:	a817883a 	mov	r11,r21
 1000bac:	2089883a 	add	r4,r4,r2
 1000bb0:	88bff404 	addi	r2,r17,-48
 1000bb4:	30bff92e 	bgeu	r6,r2,1000b9c <__alt_mem_TCDM+0xfefffb9c>
 1000bb8:	2005c916 	blt	r4,zero,10022e0 <___vfprintf_internal_r+0x1bd8>
 1000bbc:	d9002915 	stw	r4,164(sp)
 1000bc0:	003f3306 	br	1000890 <__alt_mem_TCDM+0xfefff890>
 1000bc4:	94802014 	ori	r18,r18,128
 1000bc8:	ac400007 	ldb	r17,0(r21)
 1000bcc:	003f2f06 	br	100088c <__alt_mem_TCDM+0xfefff88c>
 1000bd0:	a809883a 	mov	r4,r21
 1000bd4:	d8003115 	stw	zero,196(sp)
 1000bd8:	88bff404 	addi	r2,r17,-48
 1000bdc:	0017883a 	mov	r11,zero
 1000be0:	24400007 	ldb	r17,0(r4)
 1000be4:	5ac002a4 	muli	r11,r11,10
 1000be8:	ad400044 	addi	r21,r21,1
 1000bec:	a809883a 	mov	r4,r21
 1000bf0:	12d7883a 	add	r11,r2,r11
 1000bf4:	88bff404 	addi	r2,r17,-48
 1000bf8:	30bff92e 	bgeu	r6,r2,1000be0 <__alt_mem_TCDM+0xfefffbe0>
 1000bfc:	dac03115 	stw	r11,196(sp)
 1000c00:	003f2306 	br	1000890 <__alt_mem_TCDM+0xfefff890>
 1000c04:	18c03fcc 	andi	r3,r3,255
 1000c08:	18072b1e 	bne	r3,zero,10028b8 <___vfprintf_internal_r+0x21b0>
 1000c0c:	94800414 	ori	r18,r18,16
 1000c10:	9080080c 	andi	r2,r18,32
 1000c14:	10037b26 	beq	r2,zero,1001a04 <___vfprintf_internal_r+0x12fc>
 1000c18:	d9402d17 	ldw	r5,180(sp)
 1000c1c:	28800117 	ldw	r2,4(r5)
 1000c20:	2cc00017 	ldw	r19,0(r5)
 1000c24:	29400204 	addi	r5,r5,8
 1000c28:	d9402d15 	stw	r5,180(sp)
 1000c2c:	102d883a 	mov	r22,r2
 1000c30:	10044b16 	blt	r2,zero,1001d60 <___vfprintf_internal_r+0x1658>
 1000c34:	d9402917 	ldw	r5,164(sp)
 1000c38:	df002783 	ldbu	fp,158(sp)
 1000c3c:	2803bc16 	blt	r5,zero,1001b30 <___vfprintf_internal_r+0x1428>
 1000c40:	00ffdfc4 	movi	r3,-129
 1000c44:	9d84b03a 	or	r2,r19,r22
 1000c48:	90e4703a 	and	r18,r18,r3
 1000c4c:	10017726 	beq	r2,zero,100122c <___vfprintf_internal_r+0xb24>
 1000c50:	b0038326 	beq	r22,zero,1001a60 <___vfprintf_internal_r+0x1358>
 1000c54:	dc402a15 	stw	r17,168(sp)
 1000c58:	dc001e04 	addi	r16,sp,120
 1000c5c:	b023883a 	mov	r17,r22
 1000c60:	402d883a 	mov	r22,r8
 1000c64:	9809883a 	mov	r4,r19
 1000c68:	880b883a 	mov	r5,r17
 1000c6c:	01800284 	movi	r6,10
 1000c70:	000f883a 	mov	r7,zero
 1000c74:	100a0fc0 	call	100a0fc <__umoddi3>
 1000c78:	10800c04 	addi	r2,r2,48
 1000c7c:	843fffc4 	addi	r16,r16,-1
 1000c80:	9809883a 	mov	r4,r19
 1000c84:	880b883a 	mov	r5,r17
 1000c88:	80800005 	stb	r2,0(r16)
 1000c8c:	01800284 	movi	r6,10
 1000c90:	000f883a 	mov	r7,zero
 1000c94:	1009b840 	call	1009b84 <__udivdi3>
 1000c98:	1027883a 	mov	r19,r2
 1000c9c:	10c4b03a 	or	r2,r2,r3
 1000ca0:	1823883a 	mov	r17,r3
 1000ca4:	103fef1e 	bne	r2,zero,1000c64 <__alt_mem_TCDM+0xfefffc64>
 1000ca8:	d8c02817 	ldw	r3,160(sp)
 1000cac:	dc402a17 	ldw	r17,168(sp)
 1000cb0:	b011883a 	mov	r8,r22
 1000cb4:	1c07c83a 	sub	r3,r3,r16
 1000cb8:	d8c02e15 	stw	r3,184(sp)
 1000cbc:	00005906 	br	1000e24 <___vfprintf_internal_r+0x71c>
 1000cc0:	18c03fcc 	andi	r3,r3,255
 1000cc4:	1806fa1e 	bne	r3,zero,10028b0 <___vfprintf_internal_r+0x21a8>
 1000cc8:	9080020c 	andi	r2,r18,8
 1000ccc:	10048a26 	beq	r2,zero,1001ef8 <___vfprintf_internal_r+0x17f0>
 1000cd0:	d8c02d17 	ldw	r3,180(sp)
 1000cd4:	d9002d17 	ldw	r4,180(sp)
 1000cd8:	d9402d17 	ldw	r5,180(sp)
 1000cdc:	18c00017 	ldw	r3,0(r3)
 1000ce0:	21000117 	ldw	r4,4(r4)
 1000ce4:	29400204 	addi	r5,r5,8
 1000ce8:	d8c03615 	stw	r3,216(sp)
 1000cec:	d9003815 	stw	r4,224(sp)
 1000cf0:	d9402d15 	stw	r5,180(sp)
 1000cf4:	d9003617 	ldw	r4,216(sp)
 1000cf8:	d9403817 	ldw	r5,224(sp)
 1000cfc:	da003d15 	stw	r8,244(sp)
 1000d00:	04000044 	movi	r16,1
 1000d04:	10079280 	call	1007928 <__fpclassifyd>
 1000d08:	da003d17 	ldw	r8,244(sp)
 1000d0c:	14041f1e 	bne	r2,r16,1001d8c <___vfprintf_internal_r+0x1684>
 1000d10:	d9003617 	ldw	r4,216(sp)
 1000d14:	d9403817 	ldw	r5,224(sp)
 1000d18:	000d883a 	mov	r6,zero
 1000d1c:	000f883a 	mov	r7,zero
 1000d20:	100bae00 	call	100bae0 <__ledf2>
 1000d24:	da003d17 	ldw	r8,244(sp)
 1000d28:	1005be16 	blt	r2,zero,1002424 <___vfprintf_internal_r+0x1d1c>
 1000d2c:	df002783 	ldbu	fp,158(sp)
 1000d30:	008011c4 	movi	r2,71
 1000d34:	1445330e 	bge	r2,r17,1002204 <___vfprintf_internal_r+0x1afc>
 1000d38:	04004074 	movhi	r16,257
 1000d3c:	843f5604 	addi	r16,r16,-680
 1000d40:	00c000c4 	movi	r3,3
 1000d44:	00bfdfc4 	movi	r2,-129
 1000d48:	d8c02a15 	stw	r3,168(sp)
 1000d4c:	90a4703a 	and	r18,r18,r2
 1000d50:	d8c02e15 	stw	r3,184(sp)
 1000d54:	d8002915 	stw	zero,164(sp)
 1000d58:	d8003215 	stw	zero,200(sp)
 1000d5c:	00003706 	br	1000e3c <___vfprintf_internal_r+0x734>
 1000d60:	94800214 	ori	r18,r18,8
 1000d64:	ac400007 	ldb	r17,0(r21)
 1000d68:	003ec806 	br	100088c <__alt_mem_TCDM+0xfefff88c>
 1000d6c:	18c03fcc 	andi	r3,r3,255
 1000d70:	1806db1e 	bne	r3,zero,10028e0 <___vfprintf_internal_r+0x21d8>
 1000d74:	94800414 	ori	r18,r18,16
 1000d78:	9080080c 	andi	r2,r18,32
 1000d7c:	1002d826 	beq	r2,zero,10018e0 <___vfprintf_internal_r+0x11d8>
 1000d80:	d9402d17 	ldw	r5,180(sp)
 1000d84:	d8c02917 	ldw	r3,164(sp)
 1000d88:	d8002785 	stb	zero,158(sp)
 1000d8c:	28800204 	addi	r2,r5,8
 1000d90:	2cc00017 	ldw	r19,0(r5)
 1000d94:	2d800117 	ldw	r22,4(r5)
 1000d98:	18048f16 	blt	r3,zero,1001fd8 <___vfprintf_internal_r+0x18d0>
 1000d9c:	013fdfc4 	movi	r4,-129
 1000da0:	9d86b03a 	or	r3,r19,r22
 1000da4:	d8802d15 	stw	r2,180(sp)
 1000da8:	9124703a 	and	r18,r18,r4
 1000dac:	1802d91e 	bne	r3,zero,1001914 <___vfprintf_internal_r+0x120c>
 1000db0:	d8c02917 	ldw	r3,164(sp)
 1000db4:	0039883a 	mov	fp,zero
 1000db8:	1805c326 	beq	r3,zero,10024c8 <___vfprintf_internal_r+0x1dc0>
 1000dbc:	0027883a 	mov	r19,zero
 1000dc0:	002d883a 	mov	r22,zero
 1000dc4:	dc001e04 	addi	r16,sp,120
 1000dc8:	9806d0fa 	srli	r3,r19,3
 1000dcc:	b008977a 	slli	r4,r22,29
 1000dd0:	b02cd0fa 	srli	r22,r22,3
 1000dd4:	9cc001cc 	andi	r19,r19,7
 1000dd8:	98800c04 	addi	r2,r19,48
 1000ddc:	843fffc4 	addi	r16,r16,-1
 1000de0:	20e6b03a 	or	r19,r4,r3
 1000de4:	80800005 	stb	r2,0(r16)
 1000de8:	9d86b03a 	or	r3,r19,r22
 1000dec:	183ff61e 	bne	r3,zero,1000dc8 <__alt_mem_TCDM+0xfefffdc8>
 1000df0:	90c0004c 	andi	r3,r18,1
 1000df4:	18013b26 	beq	r3,zero,10012e4 <___vfprintf_internal_r+0xbdc>
 1000df8:	10803fcc 	andi	r2,r2,255
 1000dfc:	1080201c 	xori	r2,r2,128
 1000e00:	10bfe004 	addi	r2,r2,-128
 1000e04:	00c00c04 	movi	r3,48
 1000e08:	10c13626 	beq	r2,r3,10012e4 <___vfprintf_internal_r+0xbdc>
 1000e0c:	80ffffc5 	stb	r3,-1(r16)
 1000e10:	d8c02817 	ldw	r3,160(sp)
 1000e14:	80bfffc4 	addi	r2,r16,-1
 1000e18:	1021883a 	mov	r16,r2
 1000e1c:	1887c83a 	sub	r3,r3,r2
 1000e20:	d8c02e15 	stw	r3,184(sp)
 1000e24:	d8802e17 	ldw	r2,184(sp)
 1000e28:	d9002917 	ldw	r4,164(sp)
 1000e2c:	1100010e 	bge	r2,r4,1000e34 <___vfprintf_internal_r+0x72c>
 1000e30:	2005883a 	mov	r2,r4
 1000e34:	d8802a15 	stw	r2,168(sp)
 1000e38:	d8003215 	stw	zero,200(sp)
 1000e3c:	e7003fcc 	andi	fp,fp,255
 1000e40:	e700201c 	xori	fp,fp,128
 1000e44:	e73fe004 	addi	fp,fp,-128
 1000e48:	e0000326 	beq	fp,zero,1000e58 <___vfprintf_internal_r+0x750>
 1000e4c:	d8c02a17 	ldw	r3,168(sp)
 1000e50:	18c00044 	addi	r3,r3,1
 1000e54:	d8c02a15 	stw	r3,168(sp)
 1000e58:	90c0008c 	andi	r3,r18,2
 1000e5c:	d8c02b15 	stw	r3,172(sp)
 1000e60:	18000326 	beq	r3,zero,1000e70 <___vfprintf_internal_r+0x768>
 1000e64:	d8c02a17 	ldw	r3,168(sp)
 1000e68:	18c00084 	addi	r3,r3,2
 1000e6c:	d8c02a15 	stw	r3,168(sp)
 1000e70:	90c0210c 	andi	r3,r18,132
 1000e74:	d8c03015 	stw	r3,192(sp)
 1000e78:	1801a31e 	bne	r3,zero,1001508 <___vfprintf_internal_r+0xe00>
 1000e7c:	d9003117 	ldw	r4,196(sp)
 1000e80:	d8c02a17 	ldw	r3,168(sp)
 1000e84:	20e7c83a 	sub	r19,r4,r3
 1000e88:	04c19f0e 	bge	zero,r19,1001508 <___vfprintf_internal_r+0xe00>
 1000e8c:	02400404 	movi	r9,16
 1000e90:	d8c02017 	ldw	r3,128(sp)
 1000e94:	d8801f17 	ldw	r2,124(sp)
 1000e98:	4cc50d0e 	bge	r9,r19,10022d0 <___vfprintf_internal_r+0x1bc8>
 1000e9c:	01404074 	movhi	r5,257
 1000ea0:	297f6984 	addi	r5,r5,-602
 1000ea4:	dc403b15 	stw	r17,236(sp)
 1000ea8:	d9403515 	stw	r5,212(sp)
 1000eac:	9823883a 	mov	r17,r19
 1000eb0:	482d883a 	mov	r22,r9
 1000eb4:	9027883a 	mov	r19,r18
 1000eb8:	070001c4 	movi	fp,7
 1000ebc:	8025883a 	mov	r18,r16
 1000ec0:	dc002c17 	ldw	r16,176(sp)
 1000ec4:	00000306 	br	1000ed4 <___vfprintf_internal_r+0x7cc>
 1000ec8:	8c7ffc04 	addi	r17,r17,-16
 1000ecc:	42000204 	addi	r8,r8,8
 1000ed0:	b440130e 	bge	r22,r17,1000f20 <___vfprintf_internal_r+0x818>
 1000ed4:	01004074 	movhi	r4,257
 1000ed8:	18c00404 	addi	r3,r3,16
 1000edc:	10800044 	addi	r2,r2,1
 1000ee0:	213f6984 	addi	r4,r4,-602
 1000ee4:	41000015 	stw	r4,0(r8)
 1000ee8:	45800115 	stw	r22,4(r8)
 1000eec:	d8c02015 	stw	r3,128(sp)
 1000ef0:	d8801f15 	stw	r2,124(sp)
 1000ef4:	e0bff40e 	bge	fp,r2,1000ec8 <__alt_mem_TCDM+0xfefffec8>
 1000ef8:	d9801e04 	addi	r6,sp,120
 1000efc:	b80b883a 	mov	r5,r23
 1000f00:	8009883a 	mov	r4,r16
 1000f04:	1007d040 	call	1007d04 <__sprint_r>
 1000f08:	103f011e 	bne	r2,zero,1000b10 <__alt_mem_TCDM+0xfefffb10>
 1000f0c:	8c7ffc04 	addi	r17,r17,-16
 1000f10:	d8c02017 	ldw	r3,128(sp)
 1000f14:	d8801f17 	ldw	r2,124(sp)
 1000f18:	da000404 	addi	r8,sp,16
 1000f1c:	b47fed16 	blt	r22,r17,1000ed4 <__alt_mem_TCDM+0xfefffed4>
 1000f20:	9021883a 	mov	r16,r18
 1000f24:	9825883a 	mov	r18,r19
 1000f28:	8827883a 	mov	r19,r17
 1000f2c:	dc403b17 	ldw	r17,236(sp)
 1000f30:	d9403517 	ldw	r5,212(sp)
 1000f34:	98c7883a 	add	r3,r19,r3
 1000f38:	10800044 	addi	r2,r2,1
 1000f3c:	41400015 	stw	r5,0(r8)
 1000f40:	44c00115 	stw	r19,4(r8)
 1000f44:	d8c02015 	stw	r3,128(sp)
 1000f48:	d8801f15 	stw	r2,124(sp)
 1000f4c:	010001c4 	movi	r4,7
 1000f50:	2082a316 	blt	r4,r2,10019e0 <___vfprintf_internal_r+0x12d8>
 1000f54:	df002787 	ldb	fp,158(sp)
 1000f58:	42000204 	addi	r8,r8,8
 1000f5c:	e0000c26 	beq	fp,zero,1000f90 <___vfprintf_internal_r+0x888>
 1000f60:	d8801f17 	ldw	r2,124(sp)
 1000f64:	d9002784 	addi	r4,sp,158
 1000f68:	18c00044 	addi	r3,r3,1
 1000f6c:	10800044 	addi	r2,r2,1
 1000f70:	41000015 	stw	r4,0(r8)
 1000f74:	01000044 	movi	r4,1
 1000f78:	41000115 	stw	r4,4(r8)
 1000f7c:	d8c02015 	stw	r3,128(sp)
 1000f80:	d8801f15 	stw	r2,124(sp)
 1000f84:	010001c4 	movi	r4,7
 1000f88:	20823c16 	blt	r4,r2,100187c <___vfprintf_internal_r+0x1174>
 1000f8c:	42000204 	addi	r8,r8,8
 1000f90:	d8802b17 	ldw	r2,172(sp)
 1000f94:	10000c26 	beq	r2,zero,1000fc8 <___vfprintf_internal_r+0x8c0>
 1000f98:	d8801f17 	ldw	r2,124(sp)
 1000f9c:	d9002704 	addi	r4,sp,156
 1000fa0:	18c00084 	addi	r3,r3,2
 1000fa4:	10800044 	addi	r2,r2,1
 1000fa8:	41000015 	stw	r4,0(r8)
 1000fac:	01000084 	movi	r4,2
 1000fb0:	41000115 	stw	r4,4(r8)
 1000fb4:	d8c02015 	stw	r3,128(sp)
 1000fb8:	d8801f15 	stw	r2,124(sp)
 1000fbc:	010001c4 	movi	r4,7
 1000fc0:	20823616 	blt	r4,r2,100189c <___vfprintf_internal_r+0x1194>
 1000fc4:	42000204 	addi	r8,r8,8
 1000fc8:	d9003017 	ldw	r4,192(sp)
 1000fcc:	00802004 	movi	r2,128
 1000fd0:	20819926 	beq	r4,r2,1001638 <___vfprintf_internal_r+0xf30>
 1000fd4:	d9402917 	ldw	r5,164(sp)
 1000fd8:	d8802e17 	ldw	r2,184(sp)
 1000fdc:	28adc83a 	sub	r22,r5,r2
 1000fe0:	0580310e 	bge	zero,r22,10010a8 <___vfprintf_internal_r+0x9a0>
 1000fe4:	07000404 	movi	fp,16
 1000fe8:	d8801f17 	ldw	r2,124(sp)
 1000fec:	e584140e 	bge	fp,r22,1002040 <___vfprintf_internal_r+0x1938>
 1000ff0:	01404074 	movhi	r5,257
 1000ff4:	297f6584 	addi	r5,r5,-618
 1000ff8:	dc402915 	stw	r17,164(sp)
 1000ffc:	d9402b15 	stw	r5,172(sp)
 1001000:	b023883a 	mov	r17,r22
 1001004:	04c001c4 	movi	r19,7
 1001008:	a82d883a 	mov	r22,r21
 100100c:	902b883a 	mov	r21,r18
 1001010:	8025883a 	mov	r18,r16
 1001014:	dc002c17 	ldw	r16,176(sp)
 1001018:	00000306 	br	1001028 <___vfprintf_internal_r+0x920>
 100101c:	8c7ffc04 	addi	r17,r17,-16
 1001020:	42000204 	addi	r8,r8,8
 1001024:	e440110e 	bge	fp,r17,100106c <___vfprintf_internal_r+0x964>
 1001028:	18c00404 	addi	r3,r3,16
 100102c:	10800044 	addi	r2,r2,1
 1001030:	45000015 	stw	r20,0(r8)
 1001034:	47000115 	stw	fp,4(r8)
 1001038:	d8c02015 	stw	r3,128(sp)
 100103c:	d8801f15 	stw	r2,124(sp)
 1001040:	98bff60e 	bge	r19,r2,100101c <__alt_mem_TCDM+0xff00001c>
 1001044:	d9801e04 	addi	r6,sp,120
 1001048:	b80b883a 	mov	r5,r23
 100104c:	8009883a 	mov	r4,r16
 1001050:	1007d040 	call	1007d04 <__sprint_r>
 1001054:	103eae1e 	bne	r2,zero,1000b10 <__alt_mem_TCDM+0xfefffb10>
 1001058:	8c7ffc04 	addi	r17,r17,-16
 100105c:	d8c02017 	ldw	r3,128(sp)
 1001060:	d8801f17 	ldw	r2,124(sp)
 1001064:	da000404 	addi	r8,sp,16
 1001068:	e47fef16 	blt	fp,r17,1001028 <__alt_mem_TCDM+0xff000028>
 100106c:	9021883a 	mov	r16,r18
 1001070:	a825883a 	mov	r18,r21
 1001074:	b02b883a 	mov	r21,r22
 1001078:	882d883a 	mov	r22,r17
 100107c:	dc402917 	ldw	r17,164(sp)
 1001080:	d9002b17 	ldw	r4,172(sp)
 1001084:	1d87883a 	add	r3,r3,r22
 1001088:	10800044 	addi	r2,r2,1
 100108c:	41000015 	stw	r4,0(r8)
 1001090:	45800115 	stw	r22,4(r8)
 1001094:	d8c02015 	stw	r3,128(sp)
 1001098:	d8801f15 	stw	r2,124(sp)
 100109c:	010001c4 	movi	r4,7
 10010a0:	2081ee16 	blt	r4,r2,100185c <___vfprintf_internal_r+0x1154>
 10010a4:	42000204 	addi	r8,r8,8
 10010a8:	9080400c 	andi	r2,r18,256
 10010ac:	1001181e 	bne	r2,zero,1001510 <___vfprintf_internal_r+0xe08>
 10010b0:	d9402e17 	ldw	r5,184(sp)
 10010b4:	d8801f17 	ldw	r2,124(sp)
 10010b8:	44000015 	stw	r16,0(r8)
 10010bc:	1947883a 	add	r3,r3,r5
 10010c0:	10800044 	addi	r2,r2,1
 10010c4:	41400115 	stw	r5,4(r8)
 10010c8:	d8c02015 	stw	r3,128(sp)
 10010cc:	d8801f15 	stw	r2,124(sp)
 10010d0:	010001c4 	movi	r4,7
 10010d4:	2081d316 	blt	r4,r2,1001824 <___vfprintf_internal_r+0x111c>
 10010d8:	42000204 	addi	r8,r8,8
 10010dc:	9480010c 	andi	r18,r18,4
 10010e0:	90003226 	beq	r18,zero,10011ac <___vfprintf_internal_r+0xaa4>
 10010e4:	d9403117 	ldw	r5,196(sp)
 10010e8:	d8802a17 	ldw	r2,168(sp)
 10010ec:	28a1c83a 	sub	r16,r5,r2
 10010f0:	04002e0e 	bge	zero,r16,10011ac <___vfprintf_internal_r+0xaa4>
 10010f4:	04400404 	movi	r17,16
 10010f8:	d8801f17 	ldw	r2,124(sp)
 10010fc:	8c04a20e 	bge	r17,r16,1002388 <___vfprintf_internal_r+0x1c80>
 1001100:	01404074 	movhi	r5,257
 1001104:	297f6984 	addi	r5,r5,-602
 1001108:	d9403515 	stw	r5,212(sp)
 100110c:	048001c4 	movi	r18,7
 1001110:	dcc02c17 	ldw	r19,176(sp)
 1001114:	00000306 	br	1001124 <___vfprintf_internal_r+0xa1c>
 1001118:	843ffc04 	addi	r16,r16,-16
 100111c:	42000204 	addi	r8,r8,8
 1001120:	8c00130e 	bge	r17,r16,1001170 <___vfprintf_internal_r+0xa68>
 1001124:	01004074 	movhi	r4,257
 1001128:	18c00404 	addi	r3,r3,16
 100112c:	10800044 	addi	r2,r2,1
 1001130:	213f6984 	addi	r4,r4,-602
 1001134:	41000015 	stw	r4,0(r8)
 1001138:	44400115 	stw	r17,4(r8)
 100113c:	d8c02015 	stw	r3,128(sp)
 1001140:	d8801f15 	stw	r2,124(sp)
 1001144:	90bff40e 	bge	r18,r2,1001118 <__alt_mem_TCDM+0xff000118>
 1001148:	d9801e04 	addi	r6,sp,120
 100114c:	b80b883a 	mov	r5,r23
 1001150:	9809883a 	mov	r4,r19
 1001154:	1007d040 	call	1007d04 <__sprint_r>
 1001158:	103e6d1e 	bne	r2,zero,1000b10 <__alt_mem_TCDM+0xfefffb10>
 100115c:	843ffc04 	addi	r16,r16,-16
 1001160:	d8c02017 	ldw	r3,128(sp)
 1001164:	d8801f17 	ldw	r2,124(sp)
 1001168:	da000404 	addi	r8,sp,16
 100116c:	8c3fed16 	blt	r17,r16,1001124 <__alt_mem_TCDM+0xff000124>
 1001170:	d9403517 	ldw	r5,212(sp)
 1001174:	1c07883a 	add	r3,r3,r16
 1001178:	10800044 	addi	r2,r2,1
 100117c:	41400015 	stw	r5,0(r8)
 1001180:	44000115 	stw	r16,4(r8)
 1001184:	d8c02015 	stw	r3,128(sp)
 1001188:	d8801f15 	stw	r2,124(sp)
 100118c:	010001c4 	movi	r4,7
 1001190:	2080060e 	bge	r4,r2,10011ac <___vfprintf_internal_r+0xaa4>
 1001194:	d9002c17 	ldw	r4,176(sp)
 1001198:	d9801e04 	addi	r6,sp,120
 100119c:	b80b883a 	mov	r5,r23
 10011a0:	1007d040 	call	1007d04 <__sprint_r>
 10011a4:	103e5a1e 	bne	r2,zero,1000b10 <__alt_mem_TCDM+0xfefffb10>
 10011a8:	d8c02017 	ldw	r3,128(sp)
 10011ac:	d8803117 	ldw	r2,196(sp)
 10011b0:	d9002a17 	ldw	r4,168(sp)
 10011b4:	1100010e 	bge	r2,r4,10011bc <___vfprintf_internal_r+0xab4>
 10011b8:	2005883a 	mov	r2,r4
 10011bc:	d9402f17 	ldw	r5,188(sp)
 10011c0:	288b883a 	add	r5,r5,r2
 10011c4:	d9402f15 	stw	r5,188(sp)
 10011c8:	18019e1e 	bne	r3,zero,1001844 <___vfprintf_internal_r+0x113c>
 10011cc:	a8800007 	ldb	r2,0(r21)
 10011d0:	d8001f15 	stw	zero,124(sp)
 10011d4:	da000404 	addi	r8,sp,16
 10011d8:	103d851e 	bne	r2,zero,10007f0 <__alt_mem_TCDM+0xfefff7f0>
 10011dc:	a821883a 	mov	r16,r21
 10011e0:	003d9b06 	br	1000850 <__alt_mem_TCDM+0xfefff850>
 10011e4:	18c03fcc 	andi	r3,r3,255
 10011e8:	1805c11e 	bne	r3,zero,10028f0 <___vfprintf_internal_r+0x21e8>
 10011ec:	94800414 	ori	r18,r18,16
 10011f0:	9080080c 	andi	r2,r18,32
 10011f4:	10020c26 	beq	r2,zero,1001a28 <___vfprintf_internal_r+0x1320>
 10011f8:	d8802d17 	ldw	r2,180(sp)
 10011fc:	d9002917 	ldw	r4,164(sp)
 1001200:	d8002785 	stb	zero,158(sp)
 1001204:	10c00204 	addi	r3,r2,8
 1001208:	14c00017 	ldw	r19,0(r2)
 100120c:	15800117 	ldw	r22,4(r2)
 1001210:	20040f16 	blt	r4,zero,1002250 <___vfprintf_internal_r+0x1b48>
 1001214:	013fdfc4 	movi	r4,-129
 1001218:	9d84b03a 	or	r2,r19,r22
 100121c:	d8c02d15 	stw	r3,180(sp)
 1001220:	9124703a 	and	r18,r18,r4
 1001224:	0039883a 	mov	fp,zero
 1001228:	103e891e 	bne	r2,zero,1000c50 <__alt_mem_TCDM+0xfefffc50>
 100122c:	d9002917 	ldw	r4,164(sp)
 1001230:	2002c11e 	bne	r4,zero,1001d38 <___vfprintf_internal_r+0x1630>
 1001234:	d8002915 	stw	zero,164(sp)
 1001238:	d8002e15 	stw	zero,184(sp)
 100123c:	dc001e04 	addi	r16,sp,120
 1001240:	003ef806 	br	1000e24 <__alt_mem_TCDM+0xfefffe24>
 1001244:	18c03fcc 	andi	r3,r3,255
 1001248:	18059d1e 	bne	r3,zero,10028c0 <___vfprintf_internal_r+0x21b8>
 100124c:	01404074 	movhi	r5,257
 1001250:	297f5904 	addi	r5,r5,-668
 1001254:	d9403915 	stw	r5,228(sp)
 1001258:	9080080c 	andi	r2,r18,32
 100125c:	10005226 	beq	r2,zero,10013a8 <___vfprintf_internal_r+0xca0>
 1001260:	d8802d17 	ldw	r2,180(sp)
 1001264:	14c00017 	ldw	r19,0(r2)
 1001268:	15800117 	ldw	r22,4(r2)
 100126c:	10800204 	addi	r2,r2,8
 1001270:	d8802d15 	stw	r2,180(sp)
 1001274:	9080004c 	andi	r2,r18,1
 1001278:	10019026 	beq	r2,zero,10018bc <___vfprintf_internal_r+0x11b4>
 100127c:	9d84b03a 	or	r2,r19,r22
 1001280:	10036926 	beq	r2,zero,1002028 <___vfprintf_internal_r+0x1920>
 1001284:	d8c02917 	ldw	r3,164(sp)
 1001288:	00800c04 	movi	r2,48
 100128c:	d8802705 	stb	r2,156(sp)
 1001290:	dc402745 	stb	r17,157(sp)
 1001294:	d8002785 	stb	zero,158(sp)
 1001298:	90800094 	ori	r2,r18,2
 100129c:	18045d16 	blt	r3,zero,1002414 <___vfprintf_internal_r+0x1d0c>
 10012a0:	00bfdfc4 	movi	r2,-129
 10012a4:	90a4703a 	and	r18,r18,r2
 10012a8:	94800094 	ori	r18,r18,2
 10012ac:	0039883a 	mov	fp,zero
 10012b0:	d9003917 	ldw	r4,228(sp)
 10012b4:	dc001e04 	addi	r16,sp,120
 10012b8:	988003cc 	andi	r2,r19,15
 10012bc:	b006973a 	slli	r3,r22,28
 10012c0:	2085883a 	add	r2,r4,r2
 10012c4:	9826d13a 	srli	r19,r19,4
 10012c8:	10800003 	ldbu	r2,0(r2)
 10012cc:	b02cd13a 	srli	r22,r22,4
 10012d0:	843fffc4 	addi	r16,r16,-1
 10012d4:	1ce6b03a 	or	r19,r3,r19
 10012d8:	80800005 	stb	r2,0(r16)
 10012dc:	9d84b03a 	or	r2,r19,r22
 10012e0:	103ff51e 	bne	r2,zero,10012b8 <__alt_mem_TCDM+0xff0002b8>
 10012e4:	d8c02817 	ldw	r3,160(sp)
 10012e8:	1c07c83a 	sub	r3,r3,r16
 10012ec:	d8c02e15 	stw	r3,184(sp)
 10012f0:	003ecc06 	br	1000e24 <__alt_mem_TCDM+0xfefffe24>
 10012f4:	18c03fcc 	andi	r3,r3,255
 10012f8:	183e9f26 	beq	r3,zero,1000d78 <__alt_mem_TCDM+0xfefffd78>
 10012fc:	d9c02785 	stb	r7,158(sp)
 1001300:	003e9d06 	br	1000d78 <__alt_mem_TCDM+0xfefffd78>
 1001304:	00c00044 	movi	r3,1
 1001308:	01c00ac4 	movi	r7,43
 100130c:	ac400007 	ldb	r17,0(r21)
 1001310:	003d5e06 	br	100088c <__alt_mem_TCDM+0xfefff88c>
 1001314:	94800814 	ori	r18,r18,32
 1001318:	ac400007 	ldb	r17,0(r21)
 100131c:	003d5b06 	br	100088c <__alt_mem_TCDM+0xfefff88c>
 1001320:	d8c02d17 	ldw	r3,180(sp)
 1001324:	d8002785 	stb	zero,158(sp)
 1001328:	1c000017 	ldw	r16,0(r3)
 100132c:	1cc00104 	addi	r19,r3,4
 1001330:	80041926 	beq	r16,zero,1002398 <___vfprintf_internal_r+0x1c90>
 1001334:	d9002917 	ldw	r4,164(sp)
 1001338:	2003d016 	blt	r4,zero,100227c <___vfprintf_internal_r+0x1b74>
 100133c:	200d883a 	mov	r6,r4
 1001340:	000b883a 	mov	r5,zero
 1001344:	8009883a 	mov	r4,r16
 1001348:	da003d15 	stw	r8,244(sp)
 100134c:	1005f180 	call	1005f18 <memchr>
 1001350:	da003d17 	ldw	r8,244(sp)
 1001354:	10045426 	beq	r2,zero,10024a8 <___vfprintf_internal_r+0x1da0>
 1001358:	1405c83a 	sub	r2,r2,r16
 100135c:	d8802e15 	stw	r2,184(sp)
 1001360:	1003cc16 	blt	r2,zero,1002294 <___vfprintf_internal_r+0x1b8c>
 1001364:	df002783 	ldbu	fp,158(sp)
 1001368:	d8802a15 	stw	r2,168(sp)
 100136c:	dcc02d15 	stw	r19,180(sp)
 1001370:	d8002915 	stw	zero,164(sp)
 1001374:	d8003215 	stw	zero,200(sp)
 1001378:	003eb006 	br	1000e3c <__alt_mem_TCDM+0xfefffe3c>
 100137c:	18c03fcc 	andi	r3,r3,255
 1001380:	183f9b26 	beq	r3,zero,10011f0 <__alt_mem_TCDM+0xff0001f0>
 1001384:	d9c02785 	stb	r7,158(sp)
 1001388:	003f9906 	br	10011f0 <__alt_mem_TCDM+0xff0001f0>
 100138c:	18c03fcc 	andi	r3,r3,255
 1001390:	1805551e 	bne	r3,zero,10028e8 <___vfprintf_internal_r+0x21e0>
 1001394:	01404074 	movhi	r5,257
 1001398:	297f5e04 	addi	r5,r5,-648
 100139c:	d9403915 	stw	r5,228(sp)
 10013a0:	9080080c 	andi	r2,r18,32
 10013a4:	103fae1e 	bne	r2,zero,1001260 <__alt_mem_TCDM+0xff000260>
 10013a8:	9080040c 	andi	r2,r18,16
 10013ac:	1002de26 	beq	r2,zero,1001f28 <___vfprintf_internal_r+0x1820>
 10013b0:	d8c02d17 	ldw	r3,180(sp)
 10013b4:	002d883a 	mov	r22,zero
 10013b8:	1cc00017 	ldw	r19,0(r3)
 10013bc:	18c00104 	addi	r3,r3,4
 10013c0:	d8c02d15 	stw	r3,180(sp)
 10013c4:	003fab06 	br	1001274 <__alt_mem_TCDM+0xff000274>
 10013c8:	38803fcc 	andi	r2,r7,255
 10013cc:	1080201c 	xori	r2,r2,128
 10013d0:	10bfe004 	addi	r2,r2,-128
 10013d4:	1002d21e 	bne	r2,zero,1001f20 <___vfprintf_internal_r+0x1818>
 10013d8:	00c00044 	movi	r3,1
 10013dc:	01c00804 	movi	r7,32
 10013e0:	ac400007 	ldb	r17,0(r21)
 10013e4:	003d2906 	br	100088c <__alt_mem_TCDM+0xfefff88c>
 10013e8:	94800054 	ori	r18,r18,1
 10013ec:	ac400007 	ldb	r17,0(r21)
 10013f0:	003d2606 	br	100088c <__alt_mem_TCDM+0xfefff88c>
 10013f4:	18c03fcc 	andi	r3,r3,255
 10013f8:	183e0526 	beq	r3,zero,1000c10 <__alt_mem_TCDM+0xfefffc10>
 10013fc:	d9c02785 	stb	r7,158(sp)
 1001400:	003e0306 	br	1000c10 <__alt_mem_TCDM+0xfefffc10>
 1001404:	94801014 	ori	r18,r18,64
 1001408:	ac400007 	ldb	r17,0(r21)
 100140c:	003d1f06 	br	100088c <__alt_mem_TCDM+0xfefff88c>
 1001410:	ac400007 	ldb	r17,0(r21)
 1001414:	8a438726 	beq	r17,r9,1002234 <___vfprintf_internal_r+0x1b2c>
 1001418:	94800414 	ori	r18,r18,16
 100141c:	003d1b06 	br	100088c <__alt_mem_TCDM+0xfefff88c>
 1001420:	18c03fcc 	andi	r3,r3,255
 1001424:	1805341e 	bne	r3,zero,10028f8 <___vfprintf_internal_r+0x21f0>
 1001428:	9080080c 	andi	r2,r18,32
 100142c:	1002cd26 	beq	r2,zero,1001f64 <___vfprintf_internal_r+0x185c>
 1001430:	d9402d17 	ldw	r5,180(sp)
 1001434:	d9002f17 	ldw	r4,188(sp)
 1001438:	28800017 	ldw	r2,0(r5)
 100143c:	2007d7fa 	srai	r3,r4,31
 1001440:	29400104 	addi	r5,r5,4
 1001444:	d9402d15 	stw	r5,180(sp)
 1001448:	11000015 	stw	r4,0(r2)
 100144c:	10c00115 	stw	r3,4(r2)
 1001450:	003ce506 	br	10007e8 <__alt_mem_TCDM+0xfefff7e8>
 1001454:	d8c02d17 	ldw	r3,180(sp)
 1001458:	d9002d17 	ldw	r4,180(sp)
 100145c:	d8002785 	stb	zero,158(sp)
 1001460:	18800017 	ldw	r2,0(r3)
 1001464:	21000104 	addi	r4,r4,4
 1001468:	00c00044 	movi	r3,1
 100146c:	d8c02a15 	stw	r3,168(sp)
 1001470:	d8801405 	stb	r2,80(sp)
 1001474:	d9002d15 	stw	r4,180(sp)
 1001478:	d8c02e15 	stw	r3,184(sp)
 100147c:	d8002915 	stw	zero,164(sp)
 1001480:	d8003215 	stw	zero,200(sp)
 1001484:	dc001404 	addi	r16,sp,80
 1001488:	0039883a 	mov	fp,zero
 100148c:	003e7206 	br	1000e58 <__alt_mem_TCDM+0xfefffe58>
 1001490:	01004074 	movhi	r4,257
 1001494:	213f5e04 	addi	r4,r4,-648
 1001498:	0039883a 	mov	fp,zero
 100149c:	d9003915 	stw	r4,228(sp)
 10014a0:	04401e04 	movi	r17,120
 10014a4:	003f8206 	br	10012b0 <__alt_mem_TCDM+0xff0002b0>
 10014a8:	18c03fcc 	andi	r3,r3,255
 10014ac:	1805061e 	bne	r3,zero,10028c8 <___vfprintf_internal_r+0x21c0>
 10014b0:	883d9126 	beq	r17,zero,1000af8 <__alt_mem_TCDM+0xfefffaf8>
 10014b4:	00c00044 	movi	r3,1
 10014b8:	d8c02a15 	stw	r3,168(sp)
 10014bc:	dc401405 	stb	r17,80(sp)
 10014c0:	d8002785 	stb	zero,158(sp)
 10014c4:	003fec06 	br	1001478 <__alt_mem_TCDM+0xff000478>
 10014c8:	01404074 	movhi	r5,257
 10014cc:	297f5e04 	addi	r5,r5,-648
 10014d0:	d9403915 	stw	r5,228(sp)
 10014d4:	d8c02d15 	stw	r3,180(sp)
 10014d8:	1025883a 	mov	r18,r2
 10014dc:	04401e04 	movi	r17,120
 10014e0:	9d84b03a 	or	r2,r19,r22
 10014e4:	1000fc1e 	bne	r2,zero,10018d8 <___vfprintf_internal_r+0x11d0>
 10014e8:	0039883a 	mov	fp,zero
 10014ec:	00800084 	movi	r2,2
 10014f0:	10803fcc 	andi	r2,r2,255
 10014f4:	00c00044 	movi	r3,1
 10014f8:	10c20f26 	beq	r2,r3,1001d38 <___vfprintf_internal_r+0x1630>
 10014fc:	00c00084 	movi	r3,2
 1001500:	10fd6326 	beq	r2,r3,1000a90 <__alt_mem_TCDM+0xfefffa90>
 1001504:	003e2d06 	br	1000dbc <__alt_mem_TCDM+0xfefffdbc>
 1001508:	d8c02017 	ldw	r3,128(sp)
 100150c:	003e9306 	br	1000f5c <__alt_mem_TCDM+0xfeffff5c>
 1001510:	00801944 	movi	r2,101
 1001514:	14407e0e 	bge	r2,r17,1001710 <___vfprintf_internal_r+0x1008>
 1001518:	d9003617 	ldw	r4,216(sp)
 100151c:	d9403817 	ldw	r5,224(sp)
 1001520:	000d883a 	mov	r6,zero
 1001524:	000f883a 	mov	r7,zero
 1001528:	d8c03c15 	stw	r3,240(sp)
 100152c:	da003d15 	stw	r8,244(sp)
 1001530:	100b97c0 	call	100b97c <__eqdf2>
 1001534:	d8c03c17 	ldw	r3,240(sp)
 1001538:	da003d17 	ldw	r8,244(sp)
 100153c:	1000f71e 	bne	r2,zero,100191c <___vfprintf_internal_r+0x1214>
 1001540:	d8801f17 	ldw	r2,124(sp)
 1001544:	01004074 	movhi	r4,257
 1001548:	213f6504 	addi	r4,r4,-620
 100154c:	18c00044 	addi	r3,r3,1
 1001550:	10800044 	addi	r2,r2,1
 1001554:	41000015 	stw	r4,0(r8)
 1001558:	01000044 	movi	r4,1
 100155c:	41000115 	stw	r4,4(r8)
 1001560:	d8c02015 	stw	r3,128(sp)
 1001564:	d8801f15 	stw	r2,124(sp)
 1001568:	010001c4 	movi	r4,7
 100156c:	2082b816 	blt	r4,r2,1002050 <___vfprintf_internal_r+0x1948>
 1001570:	42000204 	addi	r8,r8,8
 1001574:	d8802617 	ldw	r2,152(sp)
 1001578:	d9403317 	ldw	r5,204(sp)
 100157c:	11400216 	blt	r2,r5,1001588 <___vfprintf_internal_r+0xe80>
 1001580:	9080004c 	andi	r2,r18,1
 1001584:	103ed526 	beq	r2,zero,10010dc <__alt_mem_TCDM+0xff0000dc>
 1001588:	d8803717 	ldw	r2,220(sp)
 100158c:	d9003417 	ldw	r4,208(sp)
 1001590:	d9403717 	ldw	r5,220(sp)
 1001594:	1887883a 	add	r3,r3,r2
 1001598:	d8801f17 	ldw	r2,124(sp)
 100159c:	41000015 	stw	r4,0(r8)
 10015a0:	41400115 	stw	r5,4(r8)
 10015a4:	10800044 	addi	r2,r2,1
 10015a8:	d8c02015 	stw	r3,128(sp)
 10015ac:	d8801f15 	stw	r2,124(sp)
 10015b0:	010001c4 	movi	r4,7
 10015b4:	20832916 	blt	r4,r2,100225c <___vfprintf_internal_r+0x1b54>
 10015b8:	42000204 	addi	r8,r8,8
 10015bc:	d8803317 	ldw	r2,204(sp)
 10015c0:	143fffc4 	addi	r16,r2,-1
 10015c4:	043ec50e 	bge	zero,r16,10010dc <__alt_mem_TCDM+0xff0000dc>
 10015c8:	04400404 	movi	r17,16
 10015cc:	d8801f17 	ldw	r2,124(sp)
 10015d0:	8c00880e 	bge	r17,r16,10017f4 <___vfprintf_internal_r+0x10ec>
 10015d4:	01404074 	movhi	r5,257
 10015d8:	297f6584 	addi	r5,r5,-618
 10015dc:	d9402b15 	stw	r5,172(sp)
 10015e0:	058001c4 	movi	r22,7
 10015e4:	dcc02c17 	ldw	r19,176(sp)
 10015e8:	00000306 	br	10015f8 <___vfprintf_internal_r+0xef0>
 10015ec:	42000204 	addi	r8,r8,8
 10015f0:	843ffc04 	addi	r16,r16,-16
 10015f4:	8c00820e 	bge	r17,r16,1001800 <___vfprintf_internal_r+0x10f8>
 10015f8:	18c00404 	addi	r3,r3,16
 10015fc:	10800044 	addi	r2,r2,1
 1001600:	45000015 	stw	r20,0(r8)
 1001604:	44400115 	stw	r17,4(r8)
 1001608:	d8c02015 	stw	r3,128(sp)
 100160c:	d8801f15 	stw	r2,124(sp)
 1001610:	b0bff60e 	bge	r22,r2,10015ec <__alt_mem_TCDM+0xff0005ec>
 1001614:	d9801e04 	addi	r6,sp,120
 1001618:	b80b883a 	mov	r5,r23
 100161c:	9809883a 	mov	r4,r19
 1001620:	1007d040 	call	1007d04 <__sprint_r>
 1001624:	103d3a1e 	bne	r2,zero,1000b10 <__alt_mem_TCDM+0xfefffb10>
 1001628:	d8c02017 	ldw	r3,128(sp)
 100162c:	d8801f17 	ldw	r2,124(sp)
 1001630:	da000404 	addi	r8,sp,16
 1001634:	003fee06 	br	10015f0 <__alt_mem_TCDM+0xff0005f0>
 1001638:	d9403117 	ldw	r5,196(sp)
 100163c:	d8802a17 	ldw	r2,168(sp)
 1001640:	28adc83a 	sub	r22,r5,r2
 1001644:	05be630e 	bge	zero,r22,1000fd4 <__alt_mem_TCDM+0xfeffffd4>
 1001648:	07000404 	movi	fp,16
 100164c:	d8801f17 	ldw	r2,124(sp)
 1001650:	e5838f0e 	bge	fp,r22,1002490 <___vfprintf_internal_r+0x1d88>
 1001654:	01404074 	movhi	r5,257
 1001658:	297f6584 	addi	r5,r5,-618
 100165c:	dc403015 	stw	r17,192(sp)
 1001660:	d9402b15 	stw	r5,172(sp)
 1001664:	b023883a 	mov	r17,r22
 1001668:	04c001c4 	movi	r19,7
 100166c:	a82d883a 	mov	r22,r21
 1001670:	902b883a 	mov	r21,r18
 1001674:	8025883a 	mov	r18,r16
 1001678:	dc002c17 	ldw	r16,176(sp)
 100167c:	00000306 	br	100168c <___vfprintf_internal_r+0xf84>
 1001680:	8c7ffc04 	addi	r17,r17,-16
 1001684:	42000204 	addi	r8,r8,8
 1001688:	e440110e 	bge	fp,r17,10016d0 <___vfprintf_internal_r+0xfc8>
 100168c:	18c00404 	addi	r3,r3,16
 1001690:	10800044 	addi	r2,r2,1
 1001694:	45000015 	stw	r20,0(r8)
 1001698:	47000115 	stw	fp,4(r8)
 100169c:	d8c02015 	stw	r3,128(sp)
 10016a0:	d8801f15 	stw	r2,124(sp)
 10016a4:	98bff60e 	bge	r19,r2,1001680 <__alt_mem_TCDM+0xff000680>
 10016a8:	d9801e04 	addi	r6,sp,120
 10016ac:	b80b883a 	mov	r5,r23
 10016b0:	8009883a 	mov	r4,r16
 10016b4:	1007d040 	call	1007d04 <__sprint_r>
 10016b8:	103d151e 	bne	r2,zero,1000b10 <__alt_mem_TCDM+0xfefffb10>
 10016bc:	8c7ffc04 	addi	r17,r17,-16
 10016c0:	d8c02017 	ldw	r3,128(sp)
 10016c4:	d8801f17 	ldw	r2,124(sp)
 10016c8:	da000404 	addi	r8,sp,16
 10016cc:	e47fef16 	blt	fp,r17,100168c <__alt_mem_TCDM+0xff00068c>
 10016d0:	9021883a 	mov	r16,r18
 10016d4:	a825883a 	mov	r18,r21
 10016d8:	b02b883a 	mov	r21,r22
 10016dc:	882d883a 	mov	r22,r17
 10016e0:	dc403017 	ldw	r17,192(sp)
 10016e4:	d9002b17 	ldw	r4,172(sp)
 10016e8:	1d87883a 	add	r3,r3,r22
 10016ec:	10800044 	addi	r2,r2,1
 10016f0:	41000015 	stw	r4,0(r8)
 10016f4:	45800115 	stw	r22,4(r8)
 10016f8:	d8c02015 	stw	r3,128(sp)
 10016fc:	d8801f15 	stw	r2,124(sp)
 1001700:	010001c4 	movi	r4,7
 1001704:	20818e16 	blt	r4,r2,1001d40 <___vfprintf_internal_r+0x1638>
 1001708:	42000204 	addi	r8,r8,8
 100170c:	003e3106 	br	1000fd4 <__alt_mem_TCDM+0xfeffffd4>
 1001710:	d9403317 	ldw	r5,204(sp)
 1001714:	00800044 	movi	r2,1
 1001718:	18c00044 	addi	r3,r3,1
 100171c:	1141530e 	bge	r2,r5,1001c6c <___vfprintf_internal_r+0x1564>
 1001720:	dc401f17 	ldw	r17,124(sp)
 1001724:	00800044 	movi	r2,1
 1001728:	40800115 	stw	r2,4(r8)
 100172c:	8c400044 	addi	r17,r17,1
 1001730:	44000015 	stw	r16,0(r8)
 1001734:	d8c02015 	stw	r3,128(sp)
 1001738:	dc401f15 	stw	r17,124(sp)
 100173c:	008001c4 	movi	r2,7
 1001740:	14416b16 	blt	r2,r17,1001cf0 <___vfprintf_internal_r+0x15e8>
 1001744:	42000204 	addi	r8,r8,8
 1001748:	d8803717 	ldw	r2,220(sp)
 100174c:	d9003417 	ldw	r4,208(sp)
 1001750:	8c400044 	addi	r17,r17,1
 1001754:	10c7883a 	add	r3,r2,r3
 1001758:	40800115 	stw	r2,4(r8)
 100175c:	41000015 	stw	r4,0(r8)
 1001760:	d8c02015 	stw	r3,128(sp)
 1001764:	dc401f15 	stw	r17,124(sp)
 1001768:	008001c4 	movi	r2,7
 100176c:	14416916 	blt	r2,r17,1001d14 <___vfprintf_internal_r+0x160c>
 1001770:	45800204 	addi	r22,r8,8
 1001774:	d9003617 	ldw	r4,216(sp)
 1001778:	d9403817 	ldw	r5,224(sp)
 100177c:	000d883a 	mov	r6,zero
 1001780:	000f883a 	mov	r7,zero
 1001784:	d8c03c15 	stw	r3,240(sp)
 1001788:	100b97c0 	call	100b97c <__eqdf2>
 100178c:	d8c03c17 	ldw	r3,240(sp)
 1001790:	1000bc26 	beq	r2,zero,1001a84 <___vfprintf_internal_r+0x137c>
 1001794:	d9403317 	ldw	r5,204(sp)
 1001798:	84000044 	addi	r16,r16,1
 100179c:	8c400044 	addi	r17,r17,1
 10017a0:	28bfffc4 	addi	r2,r5,-1
 10017a4:	1887883a 	add	r3,r3,r2
 10017a8:	b0800115 	stw	r2,4(r22)
 10017ac:	b4000015 	stw	r16,0(r22)
 10017b0:	d8c02015 	stw	r3,128(sp)
 10017b4:	dc401f15 	stw	r17,124(sp)
 10017b8:	008001c4 	movi	r2,7
 10017bc:	14414316 	blt	r2,r17,1001ccc <___vfprintf_internal_r+0x15c4>
 10017c0:	b5800204 	addi	r22,r22,8
 10017c4:	d9003a17 	ldw	r4,232(sp)
 10017c8:	df0022c4 	addi	fp,sp,139
 10017cc:	8c400044 	addi	r17,r17,1
 10017d0:	20c7883a 	add	r3,r4,r3
 10017d4:	b7000015 	stw	fp,0(r22)
 10017d8:	b1000115 	stw	r4,4(r22)
 10017dc:	d8c02015 	stw	r3,128(sp)
 10017e0:	dc401f15 	stw	r17,124(sp)
 10017e4:	008001c4 	movi	r2,7
 10017e8:	14400e16 	blt	r2,r17,1001824 <___vfprintf_internal_r+0x111c>
 10017ec:	b2000204 	addi	r8,r22,8
 10017f0:	003e3a06 	br	10010dc <__alt_mem_TCDM+0xff0000dc>
 10017f4:	01004074 	movhi	r4,257
 10017f8:	213f6584 	addi	r4,r4,-618
 10017fc:	d9002b15 	stw	r4,172(sp)
 1001800:	d9002b17 	ldw	r4,172(sp)
 1001804:	1c07883a 	add	r3,r3,r16
 1001808:	44000115 	stw	r16,4(r8)
 100180c:	41000015 	stw	r4,0(r8)
 1001810:	10800044 	addi	r2,r2,1
 1001814:	d8c02015 	stw	r3,128(sp)
 1001818:	d8801f15 	stw	r2,124(sp)
 100181c:	010001c4 	movi	r4,7
 1001820:	20be2d0e 	bge	r4,r2,10010d8 <__alt_mem_TCDM+0xff0000d8>
 1001824:	d9002c17 	ldw	r4,176(sp)
 1001828:	d9801e04 	addi	r6,sp,120
 100182c:	b80b883a 	mov	r5,r23
 1001830:	1007d040 	call	1007d04 <__sprint_r>
 1001834:	103cb61e 	bne	r2,zero,1000b10 <__alt_mem_TCDM+0xfefffb10>
 1001838:	d8c02017 	ldw	r3,128(sp)
 100183c:	da000404 	addi	r8,sp,16
 1001840:	003e2606 	br	10010dc <__alt_mem_TCDM+0xff0000dc>
 1001844:	d9002c17 	ldw	r4,176(sp)
 1001848:	d9801e04 	addi	r6,sp,120
 100184c:	b80b883a 	mov	r5,r23
 1001850:	1007d040 	call	1007d04 <__sprint_r>
 1001854:	103e5d26 	beq	r2,zero,10011cc <__alt_mem_TCDM+0xff0001cc>
 1001858:	003cad06 	br	1000b10 <__alt_mem_TCDM+0xfefffb10>
 100185c:	d9002c17 	ldw	r4,176(sp)
 1001860:	d9801e04 	addi	r6,sp,120
 1001864:	b80b883a 	mov	r5,r23
 1001868:	1007d040 	call	1007d04 <__sprint_r>
 100186c:	103ca81e 	bne	r2,zero,1000b10 <__alt_mem_TCDM+0xfefffb10>
 1001870:	d8c02017 	ldw	r3,128(sp)
 1001874:	da000404 	addi	r8,sp,16
 1001878:	003e0b06 	br	10010a8 <__alt_mem_TCDM+0xff0000a8>
 100187c:	d9002c17 	ldw	r4,176(sp)
 1001880:	d9801e04 	addi	r6,sp,120
 1001884:	b80b883a 	mov	r5,r23
 1001888:	1007d040 	call	1007d04 <__sprint_r>
 100188c:	103ca01e 	bne	r2,zero,1000b10 <__alt_mem_TCDM+0xfefffb10>
 1001890:	d8c02017 	ldw	r3,128(sp)
 1001894:	da000404 	addi	r8,sp,16
 1001898:	003dbd06 	br	1000f90 <__alt_mem_TCDM+0xfeffff90>
 100189c:	d9002c17 	ldw	r4,176(sp)
 10018a0:	d9801e04 	addi	r6,sp,120
 10018a4:	b80b883a 	mov	r5,r23
 10018a8:	1007d040 	call	1007d04 <__sprint_r>
 10018ac:	103c981e 	bne	r2,zero,1000b10 <__alt_mem_TCDM+0xfefffb10>
 10018b0:	d8c02017 	ldw	r3,128(sp)
 10018b4:	da000404 	addi	r8,sp,16
 10018b8:	003dc306 	br	1000fc8 <__alt_mem_TCDM+0xfeffffc8>
 10018bc:	d8802917 	ldw	r2,164(sp)
 10018c0:	d8002785 	stb	zero,158(sp)
 10018c4:	103f0616 	blt	r2,zero,10014e0 <__alt_mem_TCDM+0xff0004e0>
 10018c8:	00ffdfc4 	movi	r3,-129
 10018cc:	9d84b03a 	or	r2,r19,r22
 10018d0:	90e4703a 	and	r18,r18,r3
 10018d4:	103c6b26 	beq	r2,zero,1000a84 <__alt_mem_TCDM+0xfefffa84>
 10018d8:	0039883a 	mov	fp,zero
 10018dc:	003e7406 	br	10012b0 <__alt_mem_TCDM+0xff0002b0>
 10018e0:	9080040c 	andi	r2,r18,16
 10018e4:	1001b326 	beq	r2,zero,1001fb4 <___vfprintf_internal_r+0x18ac>
 10018e8:	d9002d17 	ldw	r4,180(sp)
 10018ec:	d9402917 	ldw	r5,164(sp)
 10018f0:	d8002785 	stb	zero,158(sp)
 10018f4:	20800104 	addi	r2,r4,4
 10018f8:	24c00017 	ldw	r19,0(r4)
 10018fc:	002d883a 	mov	r22,zero
 1001900:	2801b516 	blt	r5,zero,1001fd8 <___vfprintf_internal_r+0x18d0>
 1001904:	00ffdfc4 	movi	r3,-129
 1001908:	d8802d15 	stw	r2,180(sp)
 100190c:	90e4703a 	and	r18,r18,r3
 1001910:	983d2726 	beq	r19,zero,1000db0 <__alt_mem_TCDM+0xfefffdb0>
 1001914:	0039883a 	mov	fp,zero
 1001918:	003d2a06 	br	1000dc4 <__alt_mem_TCDM+0xfefffdc4>
 100191c:	dc402617 	ldw	r17,152(sp)
 1001920:	0441d30e 	bge	zero,r17,1002070 <___vfprintf_internal_r+0x1968>
 1001924:	dc403217 	ldw	r17,200(sp)
 1001928:	d8803317 	ldw	r2,204(sp)
 100192c:	1440010e 	bge	r2,r17,1001934 <___vfprintf_internal_r+0x122c>
 1001930:	1023883a 	mov	r17,r2
 1001934:	04400a0e 	bge	zero,r17,1001960 <___vfprintf_internal_r+0x1258>
 1001938:	d8801f17 	ldw	r2,124(sp)
 100193c:	1c47883a 	add	r3,r3,r17
 1001940:	44000015 	stw	r16,0(r8)
 1001944:	10800044 	addi	r2,r2,1
 1001948:	44400115 	stw	r17,4(r8)
 100194c:	d8c02015 	stw	r3,128(sp)
 1001950:	d8801f15 	stw	r2,124(sp)
 1001954:	010001c4 	movi	r4,7
 1001958:	20826516 	blt	r4,r2,10022f0 <___vfprintf_internal_r+0x1be8>
 100195c:	42000204 	addi	r8,r8,8
 1001960:	88026116 	blt	r17,zero,10022e8 <___vfprintf_internal_r+0x1be0>
 1001964:	d9003217 	ldw	r4,200(sp)
 1001968:	2463c83a 	sub	r17,r4,r17
 100196c:	04407b0e 	bge	zero,r17,1001b5c <___vfprintf_internal_r+0x1454>
 1001970:	05800404 	movi	r22,16
 1001974:	d8801f17 	ldw	r2,124(sp)
 1001978:	b4419d0e 	bge	r22,r17,1001ff0 <___vfprintf_internal_r+0x18e8>
 100197c:	01004074 	movhi	r4,257
 1001980:	213f6584 	addi	r4,r4,-618
 1001984:	d9002b15 	stw	r4,172(sp)
 1001988:	070001c4 	movi	fp,7
 100198c:	dcc02c17 	ldw	r19,176(sp)
 1001990:	00000306 	br	10019a0 <___vfprintf_internal_r+0x1298>
 1001994:	42000204 	addi	r8,r8,8
 1001998:	8c7ffc04 	addi	r17,r17,-16
 100199c:	b441970e 	bge	r22,r17,1001ffc <___vfprintf_internal_r+0x18f4>
 10019a0:	18c00404 	addi	r3,r3,16
 10019a4:	10800044 	addi	r2,r2,1
 10019a8:	45000015 	stw	r20,0(r8)
 10019ac:	45800115 	stw	r22,4(r8)
 10019b0:	d8c02015 	stw	r3,128(sp)
 10019b4:	d8801f15 	stw	r2,124(sp)
 10019b8:	e0bff60e 	bge	fp,r2,1001994 <__alt_mem_TCDM+0xff000994>
 10019bc:	d9801e04 	addi	r6,sp,120
 10019c0:	b80b883a 	mov	r5,r23
 10019c4:	9809883a 	mov	r4,r19
 10019c8:	1007d040 	call	1007d04 <__sprint_r>
 10019cc:	103c501e 	bne	r2,zero,1000b10 <__alt_mem_TCDM+0xfefffb10>
 10019d0:	d8c02017 	ldw	r3,128(sp)
 10019d4:	d8801f17 	ldw	r2,124(sp)
 10019d8:	da000404 	addi	r8,sp,16
 10019dc:	003fee06 	br	1001998 <__alt_mem_TCDM+0xff000998>
 10019e0:	d9002c17 	ldw	r4,176(sp)
 10019e4:	d9801e04 	addi	r6,sp,120
 10019e8:	b80b883a 	mov	r5,r23
 10019ec:	1007d040 	call	1007d04 <__sprint_r>
 10019f0:	103c471e 	bne	r2,zero,1000b10 <__alt_mem_TCDM+0xfefffb10>
 10019f4:	d8c02017 	ldw	r3,128(sp)
 10019f8:	df002787 	ldb	fp,158(sp)
 10019fc:	da000404 	addi	r8,sp,16
 1001a00:	003d5606 	br	1000f5c <__alt_mem_TCDM+0xfeffff5c>
 1001a04:	9080040c 	andi	r2,r18,16
 1001a08:	10016126 	beq	r2,zero,1001f90 <___vfprintf_internal_r+0x1888>
 1001a0c:	d8802d17 	ldw	r2,180(sp)
 1001a10:	14c00017 	ldw	r19,0(r2)
 1001a14:	10800104 	addi	r2,r2,4
 1001a18:	d8802d15 	stw	r2,180(sp)
 1001a1c:	982dd7fa 	srai	r22,r19,31
 1001a20:	b005883a 	mov	r2,r22
 1001a24:	003c8206 	br	1000c30 <__alt_mem_TCDM+0xfefffc30>
 1001a28:	9080040c 	andi	r2,r18,16
 1001a2c:	10003526 	beq	r2,zero,1001b04 <___vfprintf_internal_r+0x13fc>
 1001a30:	d9402d17 	ldw	r5,180(sp)
 1001a34:	d8c02917 	ldw	r3,164(sp)
 1001a38:	d8002785 	stb	zero,158(sp)
 1001a3c:	28800104 	addi	r2,r5,4
 1001a40:	2cc00017 	ldw	r19,0(r5)
 1001a44:	002d883a 	mov	r22,zero
 1001a48:	18003716 	blt	r3,zero,1001b28 <___vfprintf_internal_r+0x1420>
 1001a4c:	00ffdfc4 	movi	r3,-129
 1001a50:	d8802d15 	stw	r2,180(sp)
 1001a54:	90e4703a 	and	r18,r18,r3
 1001a58:	0039883a 	mov	fp,zero
 1001a5c:	983df326 	beq	r19,zero,100122c <__alt_mem_TCDM+0xff00022c>
 1001a60:	00800244 	movi	r2,9
 1001a64:	14fc7b36 	bltu	r2,r19,1000c54 <__alt_mem_TCDM+0xfefffc54>
 1001a68:	d8c02817 	ldw	r3,160(sp)
 1001a6c:	dc001dc4 	addi	r16,sp,119
 1001a70:	9cc00c04 	addi	r19,r19,48
 1001a74:	1c07c83a 	sub	r3,r3,r16
 1001a78:	dcc01dc5 	stb	r19,119(sp)
 1001a7c:	d8c02e15 	stw	r3,184(sp)
 1001a80:	003ce806 	br	1000e24 <__alt_mem_TCDM+0xfefffe24>
 1001a84:	d8803317 	ldw	r2,204(sp)
 1001a88:	143fffc4 	addi	r16,r2,-1
 1001a8c:	043f4d0e 	bge	zero,r16,10017c4 <__alt_mem_TCDM+0xff0007c4>
 1001a90:	07000404 	movi	fp,16
 1001a94:	e400810e 	bge	fp,r16,1001c9c <___vfprintf_internal_r+0x1594>
 1001a98:	01404074 	movhi	r5,257
 1001a9c:	297f6584 	addi	r5,r5,-618
 1001aa0:	d9402b15 	stw	r5,172(sp)
 1001aa4:	01c001c4 	movi	r7,7
 1001aa8:	dcc02c17 	ldw	r19,176(sp)
 1001aac:	00000306 	br	1001abc <___vfprintf_internal_r+0x13b4>
 1001ab0:	b5800204 	addi	r22,r22,8
 1001ab4:	843ffc04 	addi	r16,r16,-16
 1001ab8:	e4007b0e 	bge	fp,r16,1001ca8 <___vfprintf_internal_r+0x15a0>
 1001abc:	18c00404 	addi	r3,r3,16
 1001ac0:	8c400044 	addi	r17,r17,1
 1001ac4:	b5000015 	stw	r20,0(r22)
 1001ac8:	b7000115 	stw	fp,4(r22)
 1001acc:	d8c02015 	stw	r3,128(sp)
 1001ad0:	dc401f15 	stw	r17,124(sp)
 1001ad4:	3c7ff60e 	bge	r7,r17,1001ab0 <__alt_mem_TCDM+0xff000ab0>
 1001ad8:	d9801e04 	addi	r6,sp,120
 1001adc:	b80b883a 	mov	r5,r23
 1001ae0:	9809883a 	mov	r4,r19
 1001ae4:	d9c03c15 	stw	r7,240(sp)
 1001ae8:	1007d040 	call	1007d04 <__sprint_r>
 1001aec:	d9c03c17 	ldw	r7,240(sp)
 1001af0:	103c071e 	bne	r2,zero,1000b10 <__alt_mem_TCDM+0xfefffb10>
 1001af4:	d8c02017 	ldw	r3,128(sp)
 1001af8:	dc401f17 	ldw	r17,124(sp)
 1001afc:	dd800404 	addi	r22,sp,16
 1001b00:	003fec06 	br	1001ab4 <__alt_mem_TCDM+0xff000ab4>
 1001b04:	9080100c 	andi	r2,r18,64
 1001b08:	d8002785 	stb	zero,158(sp)
 1001b0c:	10010e26 	beq	r2,zero,1001f48 <___vfprintf_internal_r+0x1840>
 1001b10:	d9002d17 	ldw	r4,180(sp)
 1001b14:	d9402917 	ldw	r5,164(sp)
 1001b18:	002d883a 	mov	r22,zero
 1001b1c:	20800104 	addi	r2,r4,4
 1001b20:	24c0000b 	ldhu	r19,0(r4)
 1001b24:	283fc90e 	bge	r5,zero,1001a4c <__alt_mem_TCDM+0xff000a4c>
 1001b28:	d8802d15 	stw	r2,180(sp)
 1001b2c:	0039883a 	mov	fp,zero
 1001b30:	9d84b03a 	or	r2,r19,r22
 1001b34:	103c461e 	bne	r2,zero,1000c50 <__alt_mem_TCDM+0xfefffc50>
 1001b38:	00800044 	movi	r2,1
 1001b3c:	003e6c06 	br	10014f0 <__alt_mem_TCDM+0xff0004f0>
 1001b40:	d9002c17 	ldw	r4,176(sp)
 1001b44:	d9801e04 	addi	r6,sp,120
 1001b48:	b80b883a 	mov	r5,r23
 1001b4c:	1007d040 	call	1007d04 <__sprint_r>
 1001b50:	103bef1e 	bne	r2,zero,1000b10 <__alt_mem_TCDM+0xfefffb10>
 1001b54:	d8c02017 	ldw	r3,128(sp)
 1001b58:	da000404 	addi	r8,sp,16
 1001b5c:	d9003217 	ldw	r4,200(sp)
 1001b60:	d8802617 	ldw	r2,152(sp)
 1001b64:	d9403317 	ldw	r5,204(sp)
 1001b68:	8123883a 	add	r17,r16,r4
 1001b6c:	11400216 	blt	r2,r5,1001b78 <___vfprintf_internal_r+0x1470>
 1001b70:	9100004c 	andi	r4,r18,1
 1001b74:	20000d26 	beq	r4,zero,1001bac <___vfprintf_internal_r+0x14a4>
 1001b78:	d9003717 	ldw	r4,220(sp)
 1001b7c:	d9403417 	ldw	r5,208(sp)
 1001b80:	1907883a 	add	r3,r3,r4
 1001b84:	d9001f17 	ldw	r4,124(sp)
 1001b88:	41400015 	stw	r5,0(r8)
 1001b8c:	d9403717 	ldw	r5,220(sp)
 1001b90:	21000044 	addi	r4,r4,1
 1001b94:	d8c02015 	stw	r3,128(sp)
 1001b98:	41400115 	stw	r5,4(r8)
 1001b9c:	d9001f15 	stw	r4,124(sp)
 1001ba0:	014001c4 	movi	r5,7
 1001ba4:	2901e816 	blt	r5,r4,1002348 <___vfprintf_internal_r+0x1c40>
 1001ba8:	42000204 	addi	r8,r8,8
 1001bac:	d9003317 	ldw	r4,204(sp)
 1001bb0:	8121883a 	add	r16,r16,r4
 1001bb4:	2085c83a 	sub	r2,r4,r2
 1001bb8:	8461c83a 	sub	r16,r16,r17
 1001bbc:	1400010e 	bge	r2,r16,1001bc4 <___vfprintf_internal_r+0x14bc>
 1001bc0:	1021883a 	mov	r16,r2
 1001bc4:	04000a0e 	bge	zero,r16,1001bf0 <___vfprintf_internal_r+0x14e8>
 1001bc8:	d9001f17 	ldw	r4,124(sp)
 1001bcc:	1c07883a 	add	r3,r3,r16
 1001bd0:	44400015 	stw	r17,0(r8)
 1001bd4:	21000044 	addi	r4,r4,1
 1001bd8:	44000115 	stw	r16,4(r8)
 1001bdc:	d8c02015 	stw	r3,128(sp)
 1001be0:	d9001f15 	stw	r4,124(sp)
 1001be4:	014001c4 	movi	r5,7
 1001be8:	2901fb16 	blt	r5,r4,10023d8 <___vfprintf_internal_r+0x1cd0>
 1001bec:	42000204 	addi	r8,r8,8
 1001bf0:	8001f716 	blt	r16,zero,10023d0 <___vfprintf_internal_r+0x1cc8>
 1001bf4:	1421c83a 	sub	r16,r2,r16
 1001bf8:	043d380e 	bge	zero,r16,10010dc <__alt_mem_TCDM+0xff0000dc>
 1001bfc:	04400404 	movi	r17,16
 1001c00:	d8801f17 	ldw	r2,124(sp)
 1001c04:	8c3efb0e 	bge	r17,r16,10017f4 <__alt_mem_TCDM+0xff0007f4>
 1001c08:	01404074 	movhi	r5,257
 1001c0c:	297f6584 	addi	r5,r5,-618
 1001c10:	d9402b15 	stw	r5,172(sp)
 1001c14:	058001c4 	movi	r22,7
 1001c18:	dcc02c17 	ldw	r19,176(sp)
 1001c1c:	00000306 	br	1001c2c <___vfprintf_internal_r+0x1524>
 1001c20:	42000204 	addi	r8,r8,8
 1001c24:	843ffc04 	addi	r16,r16,-16
 1001c28:	8c3ef50e 	bge	r17,r16,1001800 <__alt_mem_TCDM+0xff000800>
 1001c2c:	18c00404 	addi	r3,r3,16
 1001c30:	10800044 	addi	r2,r2,1
 1001c34:	45000015 	stw	r20,0(r8)
 1001c38:	44400115 	stw	r17,4(r8)
 1001c3c:	d8c02015 	stw	r3,128(sp)
 1001c40:	d8801f15 	stw	r2,124(sp)
 1001c44:	b0bff60e 	bge	r22,r2,1001c20 <__alt_mem_TCDM+0xff000c20>
 1001c48:	d9801e04 	addi	r6,sp,120
 1001c4c:	b80b883a 	mov	r5,r23
 1001c50:	9809883a 	mov	r4,r19
 1001c54:	1007d040 	call	1007d04 <__sprint_r>
 1001c58:	103bad1e 	bne	r2,zero,1000b10 <__alt_mem_TCDM+0xfefffb10>
 1001c5c:	d8c02017 	ldw	r3,128(sp)
 1001c60:	d8801f17 	ldw	r2,124(sp)
 1001c64:	da000404 	addi	r8,sp,16
 1001c68:	003fee06 	br	1001c24 <__alt_mem_TCDM+0xff000c24>
 1001c6c:	9088703a 	and	r4,r18,r2
 1001c70:	203eab1e 	bne	r4,zero,1001720 <__alt_mem_TCDM+0xff000720>
 1001c74:	dc401f17 	ldw	r17,124(sp)
 1001c78:	40800115 	stw	r2,4(r8)
 1001c7c:	44000015 	stw	r16,0(r8)
 1001c80:	8c400044 	addi	r17,r17,1
 1001c84:	d8c02015 	stw	r3,128(sp)
 1001c88:	dc401f15 	stw	r17,124(sp)
 1001c8c:	008001c4 	movi	r2,7
 1001c90:	14400e16 	blt	r2,r17,1001ccc <___vfprintf_internal_r+0x15c4>
 1001c94:	45800204 	addi	r22,r8,8
 1001c98:	003eca06 	br	10017c4 <__alt_mem_TCDM+0xff0007c4>
 1001c9c:	01004074 	movhi	r4,257
 1001ca0:	213f6584 	addi	r4,r4,-618
 1001ca4:	d9002b15 	stw	r4,172(sp)
 1001ca8:	d8802b17 	ldw	r2,172(sp)
 1001cac:	1c07883a 	add	r3,r3,r16
 1001cb0:	8c400044 	addi	r17,r17,1
 1001cb4:	b0800015 	stw	r2,0(r22)
 1001cb8:	b4000115 	stw	r16,4(r22)
 1001cbc:	d8c02015 	stw	r3,128(sp)
 1001cc0:	dc401f15 	stw	r17,124(sp)
 1001cc4:	008001c4 	movi	r2,7
 1001cc8:	147ebd0e 	bge	r2,r17,10017c0 <__alt_mem_TCDM+0xff0007c0>
 1001ccc:	d9002c17 	ldw	r4,176(sp)
 1001cd0:	d9801e04 	addi	r6,sp,120
 1001cd4:	b80b883a 	mov	r5,r23
 1001cd8:	1007d040 	call	1007d04 <__sprint_r>
 1001cdc:	103b8c1e 	bne	r2,zero,1000b10 <__alt_mem_TCDM+0xfefffb10>
 1001ce0:	d8c02017 	ldw	r3,128(sp)
 1001ce4:	dc401f17 	ldw	r17,124(sp)
 1001ce8:	dd800404 	addi	r22,sp,16
 1001cec:	003eb506 	br	10017c4 <__alt_mem_TCDM+0xff0007c4>
 1001cf0:	d9002c17 	ldw	r4,176(sp)
 1001cf4:	d9801e04 	addi	r6,sp,120
 1001cf8:	b80b883a 	mov	r5,r23
 1001cfc:	1007d040 	call	1007d04 <__sprint_r>
 1001d00:	103b831e 	bne	r2,zero,1000b10 <__alt_mem_TCDM+0xfefffb10>
 1001d04:	d8c02017 	ldw	r3,128(sp)
 1001d08:	dc401f17 	ldw	r17,124(sp)
 1001d0c:	da000404 	addi	r8,sp,16
 1001d10:	003e8d06 	br	1001748 <__alt_mem_TCDM+0xff000748>
 1001d14:	d9002c17 	ldw	r4,176(sp)
 1001d18:	d9801e04 	addi	r6,sp,120
 1001d1c:	b80b883a 	mov	r5,r23
 1001d20:	1007d040 	call	1007d04 <__sprint_r>
 1001d24:	103b7a1e 	bne	r2,zero,1000b10 <__alt_mem_TCDM+0xfefffb10>
 1001d28:	d8c02017 	ldw	r3,128(sp)
 1001d2c:	dc401f17 	ldw	r17,124(sp)
 1001d30:	dd800404 	addi	r22,sp,16
 1001d34:	003e8f06 	br	1001774 <__alt_mem_TCDM+0xff000774>
 1001d38:	0027883a 	mov	r19,zero
 1001d3c:	003f4a06 	br	1001a68 <__alt_mem_TCDM+0xff000a68>
 1001d40:	d9002c17 	ldw	r4,176(sp)
 1001d44:	d9801e04 	addi	r6,sp,120
 1001d48:	b80b883a 	mov	r5,r23
 1001d4c:	1007d040 	call	1007d04 <__sprint_r>
 1001d50:	103b6f1e 	bne	r2,zero,1000b10 <__alt_mem_TCDM+0xfefffb10>
 1001d54:	d8c02017 	ldw	r3,128(sp)
 1001d58:	da000404 	addi	r8,sp,16
 1001d5c:	003c9d06 	br	1000fd4 <__alt_mem_TCDM+0xfeffffd4>
 1001d60:	04e7c83a 	sub	r19,zero,r19
 1001d64:	9804c03a 	cmpne	r2,r19,zero
 1001d68:	05adc83a 	sub	r22,zero,r22
 1001d6c:	b0adc83a 	sub	r22,r22,r2
 1001d70:	d8802917 	ldw	r2,164(sp)
 1001d74:	07000b44 	movi	fp,45
 1001d78:	df002785 	stb	fp,158(sp)
 1001d7c:	10017b16 	blt	r2,zero,100236c <___vfprintf_internal_r+0x1c64>
 1001d80:	00bfdfc4 	movi	r2,-129
 1001d84:	90a4703a 	and	r18,r18,r2
 1001d88:	003bb106 	br	1000c50 <__alt_mem_TCDM+0xfefffc50>
 1001d8c:	d9003617 	ldw	r4,216(sp)
 1001d90:	d9403817 	ldw	r5,224(sp)
 1001d94:	da003d15 	stw	r8,244(sp)
 1001d98:	10079280 	call	1007928 <__fpclassifyd>
 1001d9c:	da003d17 	ldw	r8,244(sp)
 1001da0:	1000f026 	beq	r2,zero,1002164 <___vfprintf_internal_r+0x1a5c>
 1001da4:	d9002917 	ldw	r4,164(sp)
 1001da8:	05bff7c4 	movi	r22,-33
 1001dac:	00bfffc4 	movi	r2,-1
 1001db0:	8dac703a 	and	r22,r17,r22
 1001db4:	20820026 	beq	r4,r2,10025b8 <___vfprintf_internal_r+0x1eb0>
 1001db8:	008011c4 	movi	r2,71
 1001dbc:	b081f726 	beq	r22,r2,100259c <___vfprintf_internal_r+0x1e94>
 1001dc0:	d9003817 	ldw	r4,224(sp)
 1001dc4:	90c04014 	ori	r3,r18,256
 1001dc8:	d8c02b15 	stw	r3,172(sp)
 1001dcc:	20021516 	blt	r4,zero,1002624 <___vfprintf_internal_r+0x1f1c>
 1001dd0:	dcc03817 	ldw	r19,224(sp)
 1001dd4:	d8002a05 	stb	zero,168(sp)
 1001dd8:	00801984 	movi	r2,102
 1001ddc:	8881f926 	beq	r17,r2,10025c4 <___vfprintf_internal_r+0x1ebc>
 1001de0:	00801184 	movi	r2,70
 1001de4:	88821c26 	beq	r17,r2,1002658 <___vfprintf_internal_r+0x1f50>
 1001de8:	00801144 	movi	r2,69
 1001dec:	b081ef26 	beq	r22,r2,10025ac <___vfprintf_internal_r+0x1ea4>
 1001df0:	d8c02917 	ldw	r3,164(sp)
 1001df4:	d8802104 	addi	r2,sp,132
 1001df8:	d8800315 	stw	r2,12(sp)
 1001dfc:	d9403617 	ldw	r5,216(sp)
 1001e00:	d8802504 	addi	r2,sp,148
 1001e04:	d9002c17 	ldw	r4,176(sp)
 1001e08:	d8800215 	stw	r2,8(sp)
 1001e0c:	d8802604 	addi	r2,sp,152
 1001e10:	d8c00015 	stw	r3,0(sp)
 1001e14:	d8800115 	stw	r2,4(sp)
 1001e18:	01c00084 	movi	r7,2
 1001e1c:	980d883a 	mov	r6,r19
 1001e20:	d8c03c15 	stw	r3,240(sp)
 1001e24:	da003d15 	stw	r8,244(sp)
 1001e28:	1002d2c0 	call	1002d2c <_dtoa_r>
 1001e2c:	1021883a 	mov	r16,r2
 1001e30:	008019c4 	movi	r2,103
 1001e34:	d8c03c17 	ldw	r3,240(sp)
 1001e38:	da003d17 	ldw	r8,244(sp)
 1001e3c:	88817126 	beq	r17,r2,1002404 <___vfprintf_internal_r+0x1cfc>
 1001e40:	008011c4 	movi	r2,71
 1001e44:	88829226 	beq	r17,r2,1002890 <___vfprintf_internal_r+0x2188>
 1001e48:	80f9883a 	add	fp,r16,r3
 1001e4c:	d9003617 	ldw	r4,216(sp)
 1001e50:	000d883a 	mov	r6,zero
 1001e54:	000f883a 	mov	r7,zero
 1001e58:	980b883a 	mov	r5,r19
 1001e5c:	da003d15 	stw	r8,244(sp)
 1001e60:	100b97c0 	call	100b97c <__eqdf2>
 1001e64:	da003d17 	ldw	r8,244(sp)
 1001e68:	10018d26 	beq	r2,zero,10024a0 <___vfprintf_internal_r+0x1d98>
 1001e6c:	d8802117 	ldw	r2,132(sp)
 1001e70:	1700062e 	bgeu	r2,fp,1001e8c <___vfprintf_internal_r+0x1784>
 1001e74:	01000c04 	movi	r4,48
 1001e78:	10c00044 	addi	r3,r2,1
 1001e7c:	d8c02115 	stw	r3,132(sp)
 1001e80:	11000005 	stb	r4,0(r2)
 1001e84:	d8802117 	ldw	r2,132(sp)
 1001e88:	173ffb36 	bltu	r2,fp,1001e78 <__alt_mem_TCDM+0xff000e78>
 1001e8c:	1405c83a 	sub	r2,r2,r16
 1001e90:	d8803315 	stw	r2,204(sp)
 1001e94:	008011c4 	movi	r2,71
 1001e98:	b0817626 	beq	r22,r2,1002474 <___vfprintf_internal_r+0x1d6c>
 1001e9c:	00801944 	movi	r2,101
 1001ea0:	1442810e 	bge	r2,r17,10028a8 <___vfprintf_internal_r+0x21a0>
 1001ea4:	d8c02617 	ldw	r3,152(sp)
 1001ea8:	00801984 	movi	r2,102
 1001eac:	d8c03215 	stw	r3,200(sp)
 1001eb0:	8881fe26 	beq	r17,r2,10026ac <___vfprintf_internal_r+0x1fa4>
 1001eb4:	d8c03217 	ldw	r3,200(sp)
 1001eb8:	d9003317 	ldw	r4,204(sp)
 1001ebc:	1901dd16 	blt	r3,r4,1002634 <___vfprintf_internal_r+0x1f2c>
 1001ec0:	9480004c 	andi	r18,r18,1
 1001ec4:	90022b1e 	bne	r18,zero,1002774 <___vfprintf_internal_r+0x206c>
 1001ec8:	1805883a 	mov	r2,r3
 1001ecc:	18028016 	blt	r3,zero,10028d0 <___vfprintf_internal_r+0x21c8>
 1001ed0:	d8c03217 	ldw	r3,200(sp)
 1001ed4:	044019c4 	movi	r17,103
 1001ed8:	d8c02e15 	stw	r3,184(sp)
 1001edc:	df002a07 	ldb	fp,168(sp)
 1001ee0:	e001531e 	bne	fp,zero,1002430 <___vfprintf_internal_r+0x1d28>
 1001ee4:	df002783 	ldbu	fp,158(sp)
 1001ee8:	d8802a15 	stw	r2,168(sp)
 1001eec:	dc802b17 	ldw	r18,172(sp)
 1001ef0:	d8002915 	stw	zero,164(sp)
 1001ef4:	003bd106 	br	1000e3c <__alt_mem_TCDM+0xfefffe3c>
 1001ef8:	d8802d17 	ldw	r2,180(sp)
 1001efc:	d8c02d17 	ldw	r3,180(sp)
 1001f00:	d9002d17 	ldw	r4,180(sp)
 1001f04:	10800017 	ldw	r2,0(r2)
 1001f08:	18c00117 	ldw	r3,4(r3)
 1001f0c:	21000204 	addi	r4,r4,8
 1001f10:	d8803615 	stw	r2,216(sp)
 1001f14:	d8c03815 	stw	r3,224(sp)
 1001f18:	d9002d15 	stw	r4,180(sp)
 1001f1c:	003b7506 	br	1000cf4 <__alt_mem_TCDM+0xfefffcf4>
 1001f20:	ac400007 	ldb	r17,0(r21)
 1001f24:	003a5906 	br	100088c <__alt_mem_TCDM+0xfefff88c>
 1001f28:	9080100c 	andi	r2,r18,64
 1001f2c:	1000a826 	beq	r2,zero,10021d0 <___vfprintf_internal_r+0x1ac8>
 1001f30:	d9002d17 	ldw	r4,180(sp)
 1001f34:	002d883a 	mov	r22,zero
 1001f38:	24c0000b 	ldhu	r19,0(r4)
 1001f3c:	21000104 	addi	r4,r4,4
 1001f40:	d9002d15 	stw	r4,180(sp)
 1001f44:	003ccb06 	br	1001274 <__alt_mem_TCDM+0xff000274>
 1001f48:	d8c02d17 	ldw	r3,180(sp)
 1001f4c:	d9002917 	ldw	r4,164(sp)
 1001f50:	002d883a 	mov	r22,zero
 1001f54:	18800104 	addi	r2,r3,4
 1001f58:	1cc00017 	ldw	r19,0(r3)
 1001f5c:	203ebb0e 	bge	r4,zero,1001a4c <__alt_mem_TCDM+0xff000a4c>
 1001f60:	003ef106 	br	1001b28 <__alt_mem_TCDM+0xff000b28>
 1001f64:	9080040c 	andi	r2,r18,16
 1001f68:	1000921e 	bne	r2,zero,10021b4 <___vfprintf_internal_r+0x1aac>
 1001f6c:	9480100c 	andi	r18,r18,64
 1001f70:	90013926 	beq	r18,zero,1002458 <___vfprintf_internal_r+0x1d50>
 1001f74:	d9002d17 	ldw	r4,180(sp)
 1001f78:	d9402f17 	ldw	r5,188(sp)
 1001f7c:	20800017 	ldw	r2,0(r4)
 1001f80:	21000104 	addi	r4,r4,4
 1001f84:	d9002d15 	stw	r4,180(sp)
 1001f88:	1140000d 	sth	r5,0(r2)
 1001f8c:	003a1606 	br	10007e8 <__alt_mem_TCDM+0xfefff7e8>
 1001f90:	9080100c 	andi	r2,r18,64
 1001f94:	10008026 	beq	r2,zero,1002198 <___vfprintf_internal_r+0x1a90>
 1001f98:	d8c02d17 	ldw	r3,180(sp)
 1001f9c:	1cc0000f 	ldh	r19,0(r3)
 1001fa0:	18c00104 	addi	r3,r3,4
 1001fa4:	d8c02d15 	stw	r3,180(sp)
 1001fa8:	982dd7fa 	srai	r22,r19,31
 1001fac:	b005883a 	mov	r2,r22
 1001fb0:	003b1f06 	br	1000c30 <__alt_mem_TCDM+0xfefffc30>
 1001fb4:	9080100c 	andi	r2,r18,64
 1001fb8:	d8002785 	stb	zero,158(sp)
 1001fbc:	10008a1e 	bne	r2,zero,10021e8 <___vfprintf_internal_r+0x1ae0>
 1001fc0:	d9402d17 	ldw	r5,180(sp)
 1001fc4:	d8c02917 	ldw	r3,164(sp)
 1001fc8:	002d883a 	mov	r22,zero
 1001fcc:	28800104 	addi	r2,r5,4
 1001fd0:	2cc00017 	ldw	r19,0(r5)
 1001fd4:	183e4b0e 	bge	r3,zero,1001904 <__alt_mem_TCDM+0xff000904>
 1001fd8:	9d86b03a 	or	r3,r19,r22
 1001fdc:	d8802d15 	stw	r2,180(sp)
 1001fe0:	183e4c1e 	bne	r3,zero,1001914 <__alt_mem_TCDM+0xff000914>
 1001fe4:	0039883a 	mov	fp,zero
 1001fe8:	0005883a 	mov	r2,zero
 1001fec:	003d4006 	br	10014f0 <__alt_mem_TCDM+0xff0004f0>
 1001ff0:	01404074 	movhi	r5,257
 1001ff4:	297f6584 	addi	r5,r5,-618
 1001ff8:	d9402b15 	stw	r5,172(sp)
 1001ffc:	d9402b17 	ldw	r5,172(sp)
 1002000:	1c47883a 	add	r3,r3,r17
 1002004:	10800044 	addi	r2,r2,1
 1002008:	41400015 	stw	r5,0(r8)
 100200c:	44400115 	stw	r17,4(r8)
 1002010:	d8c02015 	stw	r3,128(sp)
 1002014:	d8801f15 	stw	r2,124(sp)
 1002018:	010001c4 	movi	r4,7
 100201c:	20bec816 	blt	r4,r2,1001b40 <__alt_mem_TCDM+0xff000b40>
 1002020:	42000204 	addi	r8,r8,8
 1002024:	003ecd06 	br	1001b5c <__alt_mem_TCDM+0xff000b5c>
 1002028:	d9002917 	ldw	r4,164(sp)
 100202c:	d8002785 	stb	zero,158(sp)
 1002030:	203d2d16 	blt	r4,zero,10014e8 <__alt_mem_TCDM+0xff0004e8>
 1002034:	00bfdfc4 	movi	r2,-129
 1002038:	90a4703a 	and	r18,r18,r2
 100203c:	003a9106 	br	1000a84 <__alt_mem_TCDM+0xfefffa84>
 1002040:	01004074 	movhi	r4,257
 1002044:	213f6584 	addi	r4,r4,-618
 1002048:	d9002b15 	stw	r4,172(sp)
 100204c:	003c0c06 	br	1001080 <__alt_mem_TCDM+0xff000080>
 1002050:	d9002c17 	ldw	r4,176(sp)
 1002054:	d9801e04 	addi	r6,sp,120
 1002058:	b80b883a 	mov	r5,r23
 100205c:	1007d040 	call	1007d04 <__sprint_r>
 1002060:	103aab1e 	bne	r2,zero,1000b10 <__alt_mem_TCDM+0xfefffb10>
 1002064:	d8c02017 	ldw	r3,128(sp)
 1002068:	da000404 	addi	r8,sp,16
 100206c:	003d4106 	br	1001574 <__alt_mem_TCDM+0xff000574>
 1002070:	d8801f17 	ldw	r2,124(sp)
 1002074:	01404074 	movhi	r5,257
 1002078:	01000044 	movi	r4,1
 100207c:	18c00044 	addi	r3,r3,1
 1002080:	10800044 	addi	r2,r2,1
 1002084:	297f6504 	addi	r5,r5,-620
 1002088:	41000115 	stw	r4,4(r8)
 100208c:	41400015 	stw	r5,0(r8)
 1002090:	d8c02015 	stw	r3,128(sp)
 1002094:	d8801f15 	stw	r2,124(sp)
 1002098:	010001c4 	movi	r4,7
 100209c:	20805c16 	blt	r4,r2,1002210 <___vfprintf_internal_r+0x1b08>
 10020a0:	42000204 	addi	r8,r8,8
 10020a4:	8800041e 	bne	r17,zero,10020b8 <___vfprintf_internal_r+0x19b0>
 10020a8:	d8803317 	ldw	r2,204(sp)
 10020ac:	1000021e 	bne	r2,zero,10020b8 <___vfprintf_internal_r+0x19b0>
 10020b0:	9080004c 	andi	r2,r18,1
 10020b4:	103c0926 	beq	r2,zero,10010dc <__alt_mem_TCDM+0xff0000dc>
 10020b8:	d9003717 	ldw	r4,220(sp)
 10020bc:	d8801f17 	ldw	r2,124(sp)
 10020c0:	d9403417 	ldw	r5,208(sp)
 10020c4:	20c7883a 	add	r3,r4,r3
 10020c8:	10800044 	addi	r2,r2,1
 10020cc:	41000115 	stw	r4,4(r8)
 10020d0:	41400015 	stw	r5,0(r8)
 10020d4:	d8c02015 	stw	r3,128(sp)
 10020d8:	d8801f15 	stw	r2,124(sp)
 10020dc:	010001c4 	movi	r4,7
 10020e0:	20812116 	blt	r4,r2,1002568 <___vfprintf_internal_r+0x1e60>
 10020e4:	42000204 	addi	r8,r8,8
 10020e8:	0463c83a 	sub	r17,zero,r17
 10020ec:	0440730e 	bge	zero,r17,10022bc <___vfprintf_internal_r+0x1bb4>
 10020f0:	05800404 	movi	r22,16
 10020f4:	b440860e 	bge	r22,r17,1002310 <___vfprintf_internal_r+0x1c08>
 10020f8:	01404074 	movhi	r5,257
 10020fc:	297f6584 	addi	r5,r5,-618
 1002100:	d9402b15 	stw	r5,172(sp)
 1002104:	070001c4 	movi	fp,7
 1002108:	dcc02c17 	ldw	r19,176(sp)
 100210c:	00000306 	br	100211c <___vfprintf_internal_r+0x1a14>
 1002110:	42000204 	addi	r8,r8,8
 1002114:	8c7ffc04 	addi	r17,r17,-16
 1002118:	b440800e 	bge	r22,r17,100231c <___vfprintf_internal_r+0x1c14>
 100211c:	18c00404 	addi	r3,r3,16
 1002120:	10800044 	addi	r2,r2,1
 1002124:	45000015 	stw	r20,0(r8)
 1002128:	45800115 	stw	r22,4(r8)
 100212c:	d8c02015 	stw	r3,128(sp)
 1002130:	d8801f15 	stw	r2,124(sp)
 1002134:	e0bff60e 	bge	fp,r2,1002110 <__alt_mem_TCDM+0xff001110>
 1002138:	d9801e04 	addi	r6,sp,120
 100213c:	b80b883a 	mov	r5,r23
 1002140:	9809883a 	mov	r4,r19
 1002144:	1007d040 	call	1007d04 <__sprint_r>
 1002148:	103a711e 	bne	r2,zero,1000b10 <__alt_mem_TCDM+0xfefffb10>
 100214c:	d8c02017 	ldw	r3,128(sp)
 1002150:	d8801f17 	ldw	r2,124(sp)
 1002154:	da000404 	addi	r8,sp,16
 1002158:	003fee06 	br	1002114 <__alt_mem_TCDM+0xff001114>
 100215c:	00bfffc4 	movi	r2,-1
 1002160:	003a6f06 	br	1000b20 <__alt_mem_TCDM+0xfefffb20>
 1002164:	008011c4 	movi	r2,71
 1002168:	1440b816 	blt	r2,r17,100244c <___vfprintf_internal_r+0x1d44>
 100216c:	04004074 	movhi	r16,257
 1002170:	843f5704 	addi	r16,r16,-676
 1002174:	00c000c4 	movi	r3,3
 1002178:	00bfdfc4 	movi	r2,-129
 100217c:	d8c02a15 	stw	r3,168(sp)
 1002180:	90a4703a 	and	r18,r18,r2
 1002184:	df002783 	ldbu	fp,158(sp)
 1002188:	d8c02e15 	stw	r3,184(sp)
 100218c:	d8002915 	stw	zero,164(sp)
 1002190:	d8003215 	stw	zero,200(sp)
 1002194:	003b2906 	br	1000e3c <__alt_mem_TCDM+0xfefffe3c>
 1002198:	d9002d17 	ldw	r4,180(sp)
 100219c:	24c00017 	ldw	r19,0(r4)
 10021a0:	21000104 	addi	r4,r4,4
 10021a4:	d9002d15 	stw	r4,180(sp)
 10021a8:	982dd7fa 	srai	r22,r19,31
 10021ac:	b005883a 	mov	r2,r22
 10021b0:	003a9f06 	br	1000c30 <__alt_mem_TCDM+0xfefffc30>
 10021b4:	d9402d17 	ldw	r5,180(sp)
 10021b8:	d8c02f17 	ldw	r3,188(sp)
 10021bc:	28800017 	ldw	r2,0(r5)
 10021c0:	29400104 	addi	r5,r5,4
 10021c4:	d9402d15 	stw	r5,180(sp)
 10021c8:	10c00015 	stw	r3,0(r2)
 10021cc:	00398606 	br	10007e8 <__alt_mem_TCDM+0xfefff7e8>
 10021d0:	d9402d17 	ldw	r5,180(sp)
 10021d4:	002d883a 	mov	r22,zero
 10021d8:	2cc00017 	ldw	r19,0(r5)
 10021dc:	29400104 	addi	r5,r5,4
 10021e0:	d9402d15 	stw	r5,180(sp)
 10021e4:	003c2306 	br	1001274 <__alt_mem_TCDM+0xff000274>
 10021e8:	d8c02d17 	ldw	r3,180(sp)
 10021ec:	d9002917 	ldw	r4,164(sp)
 10021f0:	002d883a 	mov	r22,zero
 10021f4:	18800104 	addi	r2,r3,4
 10021f8:	1cc0000b 	ldhu	r19,0(r3)
 10021fc:	203dc10e 	bge	r4,zero,1001904 <__alt_mem_TCDM+0xff000904>
 1002200:	003f7506 	br	1001fd8 <__alt_mem_TCDM+0xff000fd8>
 1002204:	04004074 	movhi	r16,257
 1002208:	843f5504 	addi	r16,r16,-684
 100220c:	003acc06 	br	1000d40 <__alt_mem_TCDM+0xfefffd40>
 1002210:	d9002c17 	ldw	r4,176(sp)
 1002214:	d9801e04 	addi	r6,sp,120
 1002218:	b80b883a 	mov	r5,r23
 100221c:	1007d040 	call	1007d04 <__sprint_r>
 1002220:	103a3b1e 	bne	r2,zero,1000b10 <__alt_mem_TCDM+0xfefffb10>
 1002224:	dc402617 	ldw	r17,152(sp)
 1002228:	d8c02017 	ldw	r3,128(sp)
 100222c:	da000404 	addi	r8,sp,16
 1002230:	003f9c06 	br	10020a4 <__alt_mem_TCDM+0xff0010a4>
 1002234:	ac400043 	ldbu	r17,1(r21)
 1002238:	94800814 	ori	r18,r18,32
 100223c:	ad400044 	addi	r21,r21,1
 1002240:	8c403fcc 	andi	r17,r17,255
 1002244:	8c40201c 	xori	r17,r17,128
 1002248:	8c7fe004 	addi	r17,r17,-128
 100224c:	00398f06 	br	100088c <__alt_mem_TCDM+0xfefff88c>
 1002250:	d8c02d15 	stw	r3,180(sp)
 1002254:	0039883a 	mov	fp,zero
 1002258:	003e3506 	br	1001b30 <__alt_mem_TCDM+0xff000b30>
 100225c:	d9002c17 	ldw	r4,176(sp)
 1002260:	d9801e04 	addi	r6,sp,120
 1002264:	b80b883a 	mov	r5,r23
 1002268:	1007d040 	call	1007d04 <__sprint_r>
 100226c:	103a281e 	bne	r2,zero,1000b10 <__alt_mem_TCDM+0xfefffb10>
 1002270:	d8c02017 	ldw	r3,128(sp)
 1002274:	da000404 	addi	r8,sp,16
 1002278:	003cd006 	br	10015bc <__alt_mem_TCDM+0xff0005bc>
 100227c:	8009883a 	mov	r4,r16
 1002280:	da003d15 	stw	r8,244(sp)
 1002284:	10006700 	call	1000670 <strlen>
 1002288:	d8802e15 	stw	r2,184(sp)
 100228c:	da003d17 	ldw	r8,244(sp)
 1002290:	103c340e 	bge	r2,zero,1001364 <__alt_mem_TCDM+0xff000364>
 1002294:	0005883a 	mov	r2,zero
 1002298:	003c3206 	br	1001364 <__alt_mem_TCDM+0xff000364>
 100229c:	d9002c17 	ldw	r4,176(sp)
 10022a0:	d9801e04 	addi	r6,sp,120
 10022a4:	b80b883a 	mov	r5,r23
 10022a8:	1007d040 	call	1007d04 <__sprint_r>
 10022ac:	103a181e 	bne	r2,zero,1000b10 <__alt_mem_TCDM+0xfefffb10>
 10022b0:	d8c02017 	ldw	r3,128(sp)
 10022b4:	d8801f17 	ldw	r2,124(sp)
 10022b8:	da000404 	addi	r8,sp,16
 10022bc:	d9403317 	ldw	r5,204(sp)
 10022c0:	10800044 	addi	r2,r2,1
 10022c4:	44000015 	stw	r16,0(r8)
 10022c8:	28c7883a 	add	r3,r5,r3
 10022cc:	003b7d06 	br	10010c4 <__alt_mem_TCDM+0xff0000c4>
 10022d0:	01004074 	movhi	r4,257
 10022d4:	213f6984 	addi	r4,r4,-602
 10022d8:	d9003515 	stw	r4,212(sp)
 10022dc:	003b1406 	br	1000f30 <__alt_mem_TCDM+0xfeffff30>
 10022e0:	013fffc4 	movi	r4,-1
 10022e4:	003a3506 	br	1000bbc <__alt_mem_TCDM+0xfefffbbc>
 10022e8:	0023883a 	mov	r17,zero
 10022ec:	003d9d06 	br	1001964 <__alt_mem_TCDM+0xff000964>
 10022f0:	d9002c17 	ldw	r4,176(sp)
 10022f4:	d9801e04 	addi	r6,sp,120
 10022f8:	b80b883a 	mov	r5,r23
 10022fc:	1007d040 	call	1007d04 <__sprint_r>
 1002300:	103a031e 	bne	r2,zero,1000b10 <__alt_mem_TCDM+0xfefffb10>
 1002304:	d8c02017 	ldw	r3,128(sp)
 1002308:	da000404 	addi	r8,sp,16
 100230c:	003d9406 	br	1001960 <__alt_mem_TCDM+0xff000960>
 1002310:	01004074 	movhi	r4,257
 1002314:	213f6584 	addi	r4,r4,-618
 1002318:	d9002b15 	stw	r4,172(sp)
 100231c:	d9002b17 	ldw	r4,172(sp)
 1002320:	1c47883a 	add	r3,r3,r17
 1002324:	10800044 	addi	r2,r2,1
 1002328:	41000015 	stw	r4,0(r8)
 100232c:	44400115 	stw	r17,4(r8)
 1002330:	d8c02015 	stw	r3,128(sp)
 1002334:	d8801f15 	stw	r2,124(sp)
 1002338:	010001c4 	movi	r4,7
 100233c:	20bfd716 	blt	r4,r2,100229c <__alt_mem_TCDM+0xff00129c>
 1002340:	42000204 	addi	r8,r8,8
 1002344:	003fdd06 	br	10022bc <__alt_mem_TCDM+0xff0012bc>
 1002348:	d9002c17 	ldw	r4,176(sp)
 100234c:	d9801e04 	addi	r6,sp,120
 1002350:	b80b883a 	mov	r5,r23
 1002354:	1007d040 	call	1007d04 <__sprint_r>
 1002358:	1039ed1e 	bne	r2,zero,1000b10 <__alt_mem_TCDM+0xfefffb10>
 100235c:	d8802617 	ldw	r2,152(sp)
 1002360:	d8c02017 	ldw	r3,128(sp)
 1002364:	da000404 	addi	r8,sp,16
 1002368:	003e1006 	br	1001bac <__alt_mem_TCDM+0xff000bac>
 100236c:	00800044 	movi	r2,1
 1002370:	10803fcc 	andi	r2,r2,255
 1002374:	00c00044 	movi	r3,1
 1002378:	10fa3526 	beq	r2,r3,1000c50 <__alt_mem_TCDM+0xfefffc50>
 100237c:	00c00084 	movi	r3,2
 1002380:	10fbcb26 	beq	r2,r3,10012b0 <__alt_mem_TCDM+0xff0002b0>
 1002384:	003a8f06 	br	1000dc4 <__alt_mem_TCDM+0xfefffdc4>
 1002388:	01004074 	movhi	r4,257
 100238c:	213f6984 	addi	r4,r4,-602
 1002390:	d9003515 	stw	r4,212(sp)
 1002394:	003b7606 	br	1001170 <__alt_mem_TCDM+0xff000170>
 1002398:	d8802917 	ldw	r2,164(sp)
 100239c:	00c00184 	movi	r3,6
 10023a0:	1880012e 	bgeu	r3,r2,10023a8 <___vfprintf_internal_r+0x1ca0>
 10023a4:	1805883a 	mov	r2,r3
 10023a8:	d8802e15 	stw	r2,184(sp)
 10023ac:	1000ef16 	blt	r2,zero,100276c <___vfprintf_internal_r+0x2064>
 10023b0:	04004074 	movhi	r16,257
 10023b4:	d8802a15 	stw	r2,168(sp)
 10023b8:	dcc02d15 	stw	r19,180(sp)
 10023bc:	d8002915 	stw	zero,164(sp)
 10023c0:	d8003215 	stw	zero,200(sp)
 10023c4:	843f6304 	addi	r16,r16,-628
 10023c8:	0039883a 	mov	fp,zero
 10023cc:	003aa206 	br	1000e58 <__alt_mem_TCDM+0xfefffe58>
 10023d0:	0021883a 	mov	r16,zero
 10023d4:	003e0706 	br	1001bf4 <__alt_mem_TCDM+0xff000bf4>
 10023d8:	d9002c17 	ldw	r4,176(sp)
 10023dc:	d9801e04 	addi	r6,sp,120
 10023e0:	b80b883a 	mov	r5,r23
 10023e4:	1007d040 	call	1007d04 <__sprint_r>
 10023e8:	1039c91e 	bne	r2,zero,1000b10 <__alt_mem_TCDM+0xfefffb10>
 10023ec:	d8802617 	ldw	r2,152(sp)
 10023f0:	d9403317 	ldw	r5,204(sp)
 10023f4:	d8c02017 	ldw	r3,128(sp)
 10023f8:	da000404 	addi	r8,sp,16
 10023fc:	2885c83a 	sub	r2,r5,r2
 1002400:	003dfb06 	br	1001bf0 <__alt_mem_TCDM+0xff000bf0>
 1002404:	9080004c 	andi	r2,r18,1
 1002408:	103e8f1e 	bne	r2,zero,1001e48 <__alt_mem_TCDM+0xff000e48>
 100240c:	d8802117 	ldw	r2,132(sp)
 1002410:	003e9e06 	br	1001e8c <__alt_mem_TCDM+0xff000e8c>
 1002414:	1025883a 	mov	r18,r2
 1002418:	0039883a 	mov	fp,zero
 100241c:	00800084 	movi	r2,2
 1002420:	003fd306 	br	1002370 <__alt_mem_TCDM+0xff001370>
 1002424:	07000b44 	movi	fp,45
 1002428:	df002785 	stb	fp,158(sp)
 100242c:	003a4006 	br	1000d30 <__alt_mem_TCDM+0xfefffd30>
 1002430:	00c00b44 	movi	r3,45
 1002434:	d8c02785 	stb	r3,158(sp)
 1002438:	d8802a15 	stw	r2,168(sp)
 100243c:	dc802b17 	ldw	r18,172(sp)
 1002440:	d8002915 	stw	zero,164(sp)
 1002444:	07000b44 	movi	fp,45
 1002448:	003a8006 	br	1000e4c <__alt_mem_TCDM+0xfefffe4c>
 100244c:	04004074 	movhi	r16,257
 1002450:	843f5804 	addi	r16,r16,-672
 1002454:	003f4706 	br	1002174 <__alt_mem_TCDM+0xff001174>
 1002458:	d8c02d17 	ldw	r3,180(sp)
 100245c:	d9002f17 	ldw	r4,188(sp)
 1002460:	18800017 	ldw	r2,0(r3)
 1002464:	18c00104 	addi	r3,r3,4
 1002468:	d8c02d15 	stw	r3,180(sp)
 100246c:	11000015 	stw	r4,0(r2)
 1002470:	0038dd06 	br	10007e8 <__alt_mem_TCDM+0xfefff7e8>
 1002474:	dd802617 	ldw	r22,152(sp)
 1002478:	00bfff44 	movi	r2,-3
 100247c:	b0801c16 	blt	r22,r2,10024f0 <___vfprintf_internal_r+0x1de8>
 1002480:	d9402917 	ldw	r5,164(sp)
 1002484:	2d801a16 	blt	r5,r22,10024f0 <___vfprintf_internal_r+0x1de8>
 1002488:	dd803215 	stw	r22,200(sp)
 100248c:	003e8906 	br	1001eb4 <__alt_mem_TCDM+0xff000eb4>
 1002490:	01004074 	movhi	r4,257
 1002494:	213f6584 	addi	r4,r4,-618
 1002498:	d9002b15 	stw	r4,172(sp)
 100249c:	003c9106 	br	10016e4 <__alt_mem_TCDM+0xff0006e4>
 10024a0:	e005883a 	mov	r2,fp
 10024a4:	003e7906 	br	1001e8c <__alt_mem_TCDM+0xff000e8c>
 10024a8:	d9402917 	ldw	r5,164(sp)
 10024ac:	df002783 	ldbu	fp,158(sp)
 10024b0:	dcc02d15 	stw	r19,180(sp)
 10024b4:	d9402a15 	stw	r5,168(sp)
 10024b8:	d9402e15 	stw	r5,184(sp)
 10024bc:	d8002915 	stw	zero,164(sp)
 10024c0:	d8003215 	stw	zero,200(sp)
 10024c4:	003a5d06 	br	1000e3c <__alt_mem_TCDM+0xfefffe3c>
 10024c8:	9080004c 	andi	r2,r18,1
 10024cc:	0039883a 	mov	fp,zero
 10024d0:	10000426 	beq	r2,zero,10024e4 <___vfprintf_internal_r+0x1ddc>
 10024d4:	00800c04 	movi	r2,48
 10024d8:	dc001dc4 	addi	r16,sp,119
 10024dc:	d8801dc5 	stb	r2,119(sp)
 10024e0:	003b8006 	br	10012e4 <__alt_mem_TCDM+0xff0002e4>
 10024e4:	d8002e15 	stw	zero,184(sp)
 10024e8:	dc001e04 	addi	r16,sp,120
 10024ec:	003a4d06 	br	1000e24 <__alt_mem_TCDM+0xfefffe24>
 10024f0:	8c7fff84 	addi	r17,r17,-2
 10024f4:	b5bfffc4 	addi	r22,r22,-1
 10024f8:	dd802615 	stw	r22,152(sp)
 10024fc:	dc4022c5 	stb	r17,139(sp)
 1002500:	b000bf16 	blt	r22,zero,1002800 <___vfprintf_internal_r+0x20f8>
 1002504:	00800ac4 	movi	r2,43
 1002508:	d8802305 	stb	r2,140(sp)
 100250c:	00800244 	movi	r2,9
 1002510:	15807016 	blt	r2,r22,10026d4 <___vfprintf_internal_r+0x1fcc>
 1002514:	00800c04 	movi	r2,48
 1002518:	b5800c04 	addi	r22,r22,48
 100251c:	d8802345 	stb	r2,141(sp)
 1002520:	dd802385 	stb	r22,142(sp)
 1002524:	d88023c4 	addi	r2,sp,143
 1002528:	df0022c4 	addi	fp,sp,139
 100252c:	d8c03317 	ldw	r3,204(sp)
 1002530:	1739c83a 	sub	fp,r2,fp
 1002534:	d9003317 	ldw	r4,204(sp)
 1002538:	e0c7883a 	add	r3,fp,r3
 100253c:	df003a15 	stw	fp,232(sp)
 1002540:	d8c02e15 	stw	r3,184(sp)
 1002544:	00800044 	movi	r2,1
 1002548:	1100b30e 	bge	r2,r4,1002818 <___vfprintf_internal_r+0x2110>
 100254c:	d8c02e17 	ldw	r3,184(sp)
 1002550:	18c00044 	addi	r3,r3,1
 1002554:	d8c02e15 	stw	r3,184(sp)
 1002558:	1805883a 	mov	r2,r3
 100255c:	1800ac16 	blt	r3,zero,1002810 <___vfprintf_internal_r+0x2108>
 1002560:	d8003215 	stw	zero,200(sp)
 1002564:	003e5d06 	br	1001edc <__alt_mem_TCDM+0xff000edc>
 1002568:	d9002c17 	ldw	r4,176(sp)
 100256c:	d9801e04 	addi	r6,sp,120
 1002570:	b80b883a 	mov	r5,r23
 1002574:	1007d040 	call	1007d04 <__sprint_r>
 1002578:	1039651e 	bne	r2,zero,1000b10 <__alt_mem_TCDM+0xfefffb10>
 100257c:	dc402617 	ldw	r17,152(sp)
 1002580:	d8c02017 	ldw	r3,128(sp)
 1002584:	d8801f17 	ldw	r2,124(sp)
 1002588:	da000404 	addi	r8,sp,16
 100258c:	003ed606 	br	10020e8 <__alt_mem_TCDM+0xff0010e8>
 1002590:	582b883a 	mov	r21,r11
 1002594:	d8002915 	stw	zero,164(sp)
 1002598:	0038bd06 	br	1000890 <__alt_mem_TCDM+0xfefff890>
 100259c:	d8802917 	ldw	r2,164(sp)
 10025a0:	103e071e 	bne	r2,zero,1001dc0 <__alt_mem_TCDM+0xff000dc0>
 10025a4:	dc002915 	stw	r16,164(sp)
 10025a8:	003e0506 	br	1001dc0 <__alt_mem_TCDM+0xff000dc0>
 10025ac:	d9002917 	ldw	r4,164(sp)
 10025b0:	20c00044 	addi	r3,r4,1
 10025b4:	003e0f06 	br	1001df4 <__alt_mem_TCDM+0xff000df4>
 10025b8:	01400184 	movi	r5,6
 10025bc:	d9402915 	stw	r5,164(sp)
 10025c0:	003dff06 	br	1001dc0 <__alt_mem_TCDM+0xff000dc0>
 10025c4:	d8802104 	addi	r2,sp,132
 10025c8:	d8800315 	stw	r2,12(sp)
 10025cc:	d8802504 	addi	r2,sp,148
 10025d0:	d8800215 	stw	r2,8(sp)
 10025d4:	d8802604 	addi	r2,sp,152
 10025d8:	d8800115 	stw	r2,4(sp)
 10025dc:	d8802917 	ldw	r2,164(sp)
 10025e0:	d9403617 	ldw	r5,216(sp)
 10025e4:	d9002c17 	ldw	r4,176(sp)
 10025e8:	d8800015 	stw	r2,0(sp)
 10025ec:	01c000c4 	movi	r7,3
 10025f0:	980d883a 	mov	r6,r19
 10025f4:	da003d15 	stw	r8,244(sp)
 10025f8:	1002d2c0 	call	1002d2c <_dtoa_r>
 10025fc:	d8c02917 	ldw	r3,164(sp)
 1002600:	da003d17 	ldw	r8,244(sp)
 1002604:	1021883a 	mov	r16,r2
 1002608:	10f9883a 	add	fp,r2,r3
 100260c:	81000007 	ldb	r4,0(r16)
 1002610:	00800c04 	movi	r2,48
 1002614:	20805e26 	beq	r4,r2,1002790 <___vfprintf_internal_r+0x2088>
 1002618:	d8c02617 	ldw	r3,152(sp)
 100261c:	e0f9883a 	add	fp,fp,r3
 1002620:	003e0a06 	br	1001e4c <__alt_mem_TCDM+0xff000e4c>
 1002624:	00c00b44 	movi	r3,45
 1002628:	24e0003c 	xorhi	r19,r4,32768
 100262c:	d8c02a05 	stb	r3,168(sp)
 1002630:	003de906 	br	1001dd8 <__alt_mem_TCDM+0xff000dd8>
 1002634:	d8c03217 	ldw	r3,200(sp)
 1002638:	00c07a0e 	bge	zero,r3,1002824 <___vfprintf_internal_r+0x211c>
 100263c:	00800044 	movi	r2,1
 1002640:	d9003317 	ldw	r4,204(sp)
 1002644:	1105883a 	add	r2,r2,r4
 1002648:	d8802e15 	stw	r2,184(sp)
 100264c:	10004e16 	blt	r2,zero,1002788 <___vfprintf_internal_r+0x2080>
 1002650:	044019c4 	movi	r17,103
 1002654:	003e2106 	br	1001edc <__alt_mem_TCDM+0xff000edc>
 1002658:	d9002917 	ldw	r4,164(sp)
 100265c:	d8802104 	addi	r2,sp,132
 1002660:	d8800315 	stw	r2,12(sp)
 1002664:	d9000015 	stw	r4,0(sp)
 1002668:	d8802504 	addi	r2,sp,148
 100266c:	d9403617 	ldw	r5,216(sp)
 1002670:	d9002c17 	ldw	r4,176(sp)
 1002674:	d8800215 	stw	r2,8(sp)
 1002678:	d8802604 	addi	r2,sp,152
 100267c:	d8800115 	stw	r2,4(sp)
 1002680:	01c000c4 	movi	r7,3
 1002684:	980d883a 	mov	r6,r19
 1002688:	da003d15 	stw	r8,244(sp)
 100268c:	1002d2c0 	call	1002d2c <_dtoa_r>
 1002690:	d8c02917 	ldw	r3,164(sp)
 1002694:	da003d17 	ldw	r8,244(sp)
 1002698:	1021883a 	mov	r16,r2
 100269c:	00801184 	movi	r2,70
 10026a0:	80f9883a 	add	fp,r16,r3
 10026a4:	88bfd926 	beq	r17,r2,100260c <__alt_mem_TCDM+0xff00160c>
 10026a8:	003de806 	br	1001e4c <__alt_mem_TCDM+0xff000e4c>
 10026ac:	d9002917 	ldw	r4,164(sp)
 10026b0:	00c04d0e 	bge	zero,r3,10027e8 <___vfprintf_internal_r+0x20e0>
 10026b4:	2000441e 	bne	r4,zero,10027c8 <___vfprintf_internal_r+0x20c0>
 10026b8:	9480004c 	andi	r18,r18,1
 10026bc:	9000421e 	bne	r18,zero,10027c8 <___vfprintf_internal_r+0x20c0>
 10026c0:	1805883a 	mov	r2,r3
 10026c4:	18007016 	blt	r3,zero,1002888 <___vfprintf_internal_r+0x2180>
 10026c8:	d8c03217 	ldw	r3,200(sp)
 10026cc:	d8c02e15 	stw	r3,184(sp)
 10026d0:	003e0206 	br	1001edc <__alt_mem_TCDM+0xff000edc>
 10026d4:	df0022c4 	addi	fp,sp,139
 10026d8:	dc002915 	stw	r16,164(sp)
 10026dc:	4027883a 	mov	r19,r8
 10026e0:	e021883a 	mov	r16,fp
 10026e4:	b009883a 	mov	r4,r22
 10026e8:	01400284 	movi	r5,10
 10026ec:	100a6b80 	call	100a6b8 <__modsi3>
 10026f0:	10800c04 	addi	r2,r2,48
 10026f4:	843fffc4 	addi	r16,r16,-1
 10026f8:	b009883a 	mov	r4,r22
 10026fc:	01400284 	movi	r5,10
 1002700:	80800005 	stb	r2,0(r16)
 1002704:	100a6340 	call	100a634 <__divsi3>
 1002708:	102d883a 	mov	r22,r2
 100270c:	00800244 	movi	r2,9
 1002710:	15bff416 	blt	r2,r22,10026e4 <__alt_mem_TCDM+0xff0016e4>
 1002714:	9811883a 	mov	r8,r19
 1002718:	b0800c04 	addi	r2,r22,48
 100271c:	8027883a 	mov	r19,r16
 1002720:	997fffc4 	addi	r5,r19,-1
 1002724:	98bfffc5 	stb	r2,-1(r19)
 1002728:	dc002917 	ldw	r16,164(sp)
 100272c:	2f006a2e 	bgeu	r5,fp,10028d8 <___vfprintf_internal_r+0x21d0>
 1002730:	d9c02384 	addi	r7,sp,142
 1002734:	3ccfc83a 	sub	r7,r7,r19
 1002738:	d9002344 	addi	r4,sp,141
 100273c:	e1cf883a 	add	r7,fp,r7
 1002740:	00000106 	br	1002748 <___vfprintf_internal_r+0x2040>
 1002744:	28800003 	ldbu	r2,0(r5)
 1002748:	20800005 	stb	r2,0(r4)
 100274c:	21000044 	addi	r4,r4,1
 1002750:	29400044 	addi	r5,r5,1
 1002754:	393ffb1e 	bne	r7,r4,1002744 <__alt_mem_TCDM+0xff001744>
 1002758:	d8802304 	addi	r2,sp,140
 100275c:	14c5c83a 	sub	r2,r2,r19
 1002760:	d8c02344 	addi	r3,sp,141
 1002764:	1885883a 	add	r2,r3,r2
 1002768:	003f7006 	br	100252c <__alt_mem_TCDM+0xff00152c>
 100276c:	0005883a 	mov	r2,zero
 1002770:	003f0f06 	br	10023b0 <__alt_mem_TCDM+0xff0013b0>
 1002774:	d8c03217 	ldw	r3,200(sp)
 1002778:	18c00044 	addi	r3,r3,1
 100277c:	d8c02e15 	stw	r3,184(sp)
 1002780:	1805883a 	mov	r2,r3
 1002784:	183fb20e 	bge	r3,zero,1002650 <__alt_mem_TCDM+0xff001650>
 1002788:	0005883a 	mov	r2,zero
 100278c:	003fb006 	br	1002650 <__alt_mem_TCDM+0xff001650>
 1002790:	d9003617 	ldw	r4,216(sp)
 1002794:	000d883a 	mov	r6,zero
 1002798:	000f883a 	mov	r7,zero
 100279c:	980b883a 	mov	r5,r19
 10027a0:	d8c03c15 	stw	r3,240(sp)
 10027a4:	da003d15 	stw	r8,244(sp)
 10027a8:	100b97c0 	call	100b97c <__eqdf2>
 10027ac:	d8c03c17 	ldw	r3,240(sp)
 10027b0:	da003d17 	ldw	r8,244(sp)
 10027b4:	103f9826 	beq	r2,zero,1002618 <__alt_mem_TCDM+0xff001618>
 10027b8:	00800044 	movi	r2,1
 10027bc:	10c7c83a 	sub	r3,r2,r3
 10027c0:	d8c02615 	stw	r3,152(sp)
 10027c4:	003f9506 	br	100261c <__alt_mem_TCDM+0xff00161c>
 10027c8:	d9002917 	ldw	r4,164(sp)
 10027cc:	d8c03217 	ldw	r3,200(sp)
 10027d0:	20800044 	addi	r2,r4,1
 10027d4:	1885883a 	add	r2,r3,r2
 10027d8:	d8802e15 	stw	r2,184(sp)
 10027dc:	103dbf0e 	bge	r2,zero,1001edc <__alt_mem_TCDM+0xff000edc>
 10027e0:	0005883a 	mov	r2,zero
 10027e4:	003dbd06 	br	1001edc <__alt_mem_TCDM+0xff000edc>
 10027e8:	2000211e 	bne	r4,zero,1002870 <___vfprintf_internal_r+0x2168>
 10027ec:	9480004c 	andi	r18,r18,1
 10027f0:	90001f1e 	bne	r18,zero,1002870 <___vfprintf_internal_r+0x2168>
 10027f4:	00800044 	movi	r2,1
 10027f8:	d8802e15 	stw	r2,184(sp)
 10027fc:	003db706 	br	1001edc <__alt_mem_TCDM+0xff000edc>
 1002800:	00800b44 	movi	r2,45
 1002804:	05adc83a 	sub	r22,zero,r22
 1002808:	d8802305 	stb	r2,140(sp)
 100280c:	003f3f06 	br	100250c <__alt_mem_TCDM+0xff00150c>
 1002810:	0005883a 	mov	r2,zero
 1002814:	003f5206 	br	1002560 <__alt_mem_TCDM+0xff001560>
 1002818:	90a4703a 	and	r18,r18,r2
 100281c:	903f4e26 	beq	r18,zero,1002558 <__alt_mem_TCDM+0xff001558>
 1002820:	003f4a06 	br	100254c <__alt_mem_TCDM+0xff00154c>
 1002824:	00800084 	movi	r2,2
 1002828:	10c5c83a 	sub	r2,r2,r3
 100282c:	003f8406 	br	1002640 <__alt_mem_TCDM+0xff001640>
 1002830:	d8802d17 	ldw	r2,180(sp)
 1002834:	d9002d17 	ldw	r4,180(sp)
 1002838:	ac400043 	ldbu	r17,1(r21)
 100283c:	10800017 	ldw	r2,0(r2)
 1002840:	582b883a 	mov	r21,r11
 1002844:	d8802915 	stw	r2,164(sp)
 1002848:	20800104 	addi	r2,r4,4
 100284c:	d9002917 	ldw	r4,164(sp)
 1002850:	d8802d15 	stw	r2,180(sp)
 1002854:	203e7a0e 	bge	r4,zero,1002240 <__alt_mem_TCDM+0xff001240>
 1002858:	8c403fcc 	andi	r17,r17,255
 100285c:	00bfffc4 	movi	r2,-1
 1002860:	8c40201c 	xori	r17,r17,128
 1002864:	d8802915 	stw	r2,164(sp)
 1002868:	8c7fe004 	addi	r17,r17,-128
 100286c:	00380706 	br	100088c <__alt_mem_TCDM+0xfefff88c>
 1002870:	d8c02917 	ldw	r3,164(sp)
 1002874:	18c00084 	addi	r3,r3,2
 1002878:	d8c02e15 	stw	r3,184(sp)
 100287c:	1805883a 	mov	r2,r3
 1002880:	183d960e 	bge	r3,zero,1001edc <__alt_mem_TCDM+0xff000edc>
 1002884:	003fd606 	br	10027e0 <__alt_mem_TCDM+0xff0017e0>
 1002888:	0005883a 	mov	r2,zero
 100288c:	003f8e06 	br	10026c8 <__alt_mem_TCDM+0xff0016c8>
 1002890:	9080004c 	andi	r2,r18,1
 1002894:	103f811e 	bne	r2,zero,100269c <__alt_mem_TCDM+0xff00169c>
 1002898:	d8802117 	ldw	r2,132(sp)
 100289c:	1405c83a 	sub	r2,r2,r16
 10028a0:	d8803315 	stw	r2,204(sp)
 10028a4:	b47ef326 	beq	r22,r17,1002474 <__alt_mem_TCDM+0xff001474>
 10028a8:	dd802617 	ldw	r22,152(sp)
 10028ac:	003f1106 	br	10024f4 <__alt_mem_TCDM+0xff0014f4>
 10028b0:	d9c02785 	stb	r7,158(sp)
 10028b4:	00390406 	br	1000cc8 <__alt_mem_TCDM+0xfefffcc8>
 10028b8:	d9c02785 	stb	r7,158(sp)
 10028bc:	0038d306 	br	1000c0c <__alt_mem_TCDM+0xfefffc0c>
 10028c0:	d9c02785 	stb	r7,158(sp)
 10028c4:	003a6106 	br	100124c <__alt_mem_TCDM+0xff00024c>
 10028c8:	d9c02785 	stb	r7,158(sp)
 10028cc:	003af806 	br	10014b0 <__alt_mem_TCDM+0xff0004b0>
 10028d0:	0005883a 	mov	r2,zero
 10028d4:	003d7e06 	br	1001ed0 <__alt_mem_TCDM+0xff000ed0>
 10028d8:	d8802344 	addi	r2,sp,141
 10028dc:	003f1306 	br	100252c <__alt_mem_TCDM+0xff00152c>
 10028e0:	d9c02785 	stb	r7,158(sp)
 10028e4:	00392306 	br	1000d74 <__alt_mem_TCDM+0xfefffd74>
 10028e8:	d9c02785 	stb	r7,158(sp)
 10028ec:	003aa906 	br	1001394 <__alt_mem_TCDM+0xff000394>
 10028f0:	d9c02785 	stb	r7,158(sp)
 10028f4:	003a3d06 	br	10011ec <__alt_mem_TCDM+0xff0001ec>
 10028f8:	d9c02785 	stb	r7,158(sp)
 10028fc:	003aca06 	br	1001428 <__alt_mem_TCDM+0xff000428>

01002900 <__vfprintf_internal>:
 1002900:	00804074 	movhi	r2,257
 1002904:	1086fe04 	addi	r2,r2,7160
 1002908:	300f883a 	mov	r7,r6
 100290c:	280d883a 	mov	r6,r5
 1002910:	200b883a 	mov	r5,r4
 1002914:	11000017 	ldw	r4,0(r2)
 1002918:	10007081 	jmpi	1000708 <___vfprintf_internal_r>

0100291c <__sbprintf>:
 100291c:	2880030b 	ldhu	r2,12(r5)
 1002920:	2ac01917 	ldw	r11,100(r5)
 1002924:	2a80038b 	ldhu	r10,14(r5)
 1002928:	2a400717 	ldw	r9,28(r5)
 100292c:	2a000917 	ldw	r8,36(r5)
 1002930:	defee204 	addi	sp,sp,-1144
 1002934:	00c10004 	movi	r3,1024
 1002938:	dc011a15 	stw	r16,1128(sp)
 100293c:	10bfff4c 	andi	r2,r2,65533
 1002940:	2821883a 	mov	r16,r5
 1002944:	d8cb883a 	add	r5,sp,r3
 1002948:	dc811c15 	stw	r18,1136(sp)
 100294c:	dc411b15 	stw	r17,1132(sp)
 1002950:	dfc11d15 	stw	ra,1140(sp)
 1002954:	2025883a 	mov	r18,r4
 1002958:	d881030d 	sth	r2,1036(sp)
 100295c:	dac11915 	stw	r11,1124(sp)
 1002960:	da81038d 	sth	r10,1038(sp)
 1002964:	da410715 	stw	r9,1052(sp)
 1002968:	da010915 	stw	r8,1060(sp)
 100296c:	dec10015 	stw	sp,1024(sp)
 1002970:	dec10415 	stw	sp,1040(sp)
 1002974:	d8c10215 	stw	r3,1032(sp)
 1002978:	d8c10515 	stw	r3,1044(sp)
 100297c:	d8010615 	stw	zero,1048(sp)
 1002980:	10007080 	call	1000708 <___vfprintf_internal_r>
 1002984:	1023883a 	mov	r17,r2
 1002988:	10000416 	blt	r2,zero,100299c <__sbprintf+0x80>
 100298c:	d9410004 	addi	r5,sp,1024
 1002990:	9009883a 	mov	r4,r18
 1002994:	10045d00 	call	10045d0 <_fflush_r>
 1002998:	10000d1e 	bne	r2,zero,10029d0 <__sbprintf+0xb4>
 100299c:	d881030b 	ldhu	r2,1036(sp)
 10029a0:	1080100c 	andi	r2,r2,64
 10029a4:	10000326 	beq	r2,zero,10029b4 <__sbprintf+0x98>
 10029a8:	8080030b 	ldhu	r2,12(r16)
 10029ac:	10801014 	ori	r2,r2,64
 10029b0:	8080030d 	sth	r2,12(r16)
 10029b4:	8805883a 	mov	r2,r17
 10029b8:	dfc11d17 	ldw	ra,1140(sp)
 10029bc:	dc811c17 	ldw	r18,1136(sp)
 10029c0:	dc411b17 	ldw	r17,1132(sp)
 10029c4:	dc011a17 	ldw	r16,1128(sp)
 10029c8:	dec11e04 	addi	sp,sp,1144
 10029cc:	f800283a 	ret
 10029d0:	047fffc4 	movi	r17,-1
 10029d4:	003ff106 	br	100299c <__alt_mem_TCDM+0xff00199c>

010029d8 <__swsetup_r>:
 10029d8:	00804074 	movhi	r2,257
 10029dc:	defffd04 	addi	sp,sp,-12
 10029e0:	1086fe04 	addi	r2,r2,7160
 10029e4:	dc400115 	stw	r17,4(sp)
 10029e8:	2023883a 	mov	r17,r4
 10029ec:	11000017 	ldw	r4,0(r2)
 10029f0:	dc000015 	stw	r16,0(sp)
 10029f4:	dfc00215 	stw	ra,8(sp)
 10029f8:	2821883a 	mov	r16,r5
 10029fc:	20000226 	beq	r4,zero,1002a08 <__swsetup_r+0x30>
 1002a00:	20800e17 	ldw	r2,56(r4)
 1002a04:	10003126 	beq	r2,zero,1002acc <__swsetup_r+0xf4>
 1002a08:	8080030b 	ldhu	r2,12(r16)
 1002a0c:	10c0020c 	andi	r3,r2,8
 1002a10:	1009883a 	mov	r4,r2
 1002a14:	18000f26 	beq	r3,zero,1002a54 <__swsetup_r+0x7c>
 1002a18:	80c00417 	ldw	r3,16(r16)
 1002a1c:	18001526 	beq	r3,zero,1002a74 <__swsetup_r+0x9c>
 1002a20:	1100004c 	andi	r4,r2,1
 1002a24:	20001c1e 	bne	r4,zero,1002a98 <__swsetup_r+0xc0>
 1002a28:	1080008c 	andi	r2,r2,2
 1002a2c:	1000291e 	bne	r2,zero,1002ad4 <__swsetup_r+0xfc>
 1002a30:	80800517 	ldw	r2,20(r16)
 1002a34:	80800215 	stw	r2,8(r16)
 1002a38:	18001c26 	beq	r3,zero,1002aac <__swsetup_r+0xd4>
 1002a3c:	0005883a 	mov	r2,zero
 1002a40:	dfc00217 	ldw	ra,8(sp)
 1002a44:	dc400117 	ldw	r17,4(sp)
 1002a48:	dc000017 	ldw	r16,0(sp)
 1002a4c:	dec00304 	addi	sp,sp,12
 1002a50:	f800283a 	ret
 1002a54:	2080040c 	andi	r2,r4,16
 1002a58:	10002e26 	beq	r2,zero,1002b14 <__swsetup_r+0x13c>
 1002a5c:	2080010c 	andi	r2,r4,4
 1002a60:	10001e1e 	bne	r2,zero,1002adc <__swsetup_r+0x104>
 1002a64:	80c00417 	ldw	r3,16(r16)
 1002a68:	20800214 	ori	r2,r4,8
 1002a6c:	8080030d 	sth	r2,12(r16)
 1002a70:	183feb1e 	bne	r3,zero,1002a20 <__alt_mem_TCDM+0xff001a20>
 1002a74:	1100a00c 	andi	r4,r2,640
 1002a78:	01408004 	movi	r5,512
 1002a7c:	217fe826 	beq	r4,r5,1002a20 <__alt_mem_TCDM+0xff001a20>
 1002a80:	800b883a 	mov	r5,r16
 1002a84:	8809883a 	mov	r4,r17
 1002a88:	10055500 	call	1005550 <__smakebuf_r>
 1002a8c:	8080030b 	ldhu	r2,12(r16)
 1002a90:	80c00417 	ldw	r3,16(r16)
 1002a94:	003fe206 	br	1002a20 <__alt_mem_TCDM+0xff001a20>
 1002a98:	80800517 	ldw	r2,20(r16)
 1002a9c:	80000215 	stw	zero,8(r16)
 1002aa0:	0085c83a 	sub	r2,zero,r2
 1002aa4:	80800615 	stw	r2,24(r16)
 1002aa8:	183fe41e 	bne	r3,zero,1002a3c <__alt_mem_TCDM+0xff001a3c>
 1002aac:	80c0030b 	ldhu	r3,12(r16)
 1002ab0:	0005883a 	mov	r2,zero
 1002ab4:	1900200c 	andi	r4,r3,128
 1002ab8:	203fe126 	beq	r4,zero,1002a40 <__alt_mem_TCDM+0xff001a40>
 1002abc:	18c01014 	ori	r3,r3,64
 1002ac0:	80c0030d 	sth	r3,12(r16)
 1002ac4:	00bfffc4 	movi	r2,-1
 1002ac8:	003fdd06 	br	1002a40 <__alt_mem_TCDM+0xff001a40>
 1002acc:	10049ac0 	call	10049ac <__sinit>
 1002ad0:	003fcd06 	br	1002a08 <__alt_mem_TCDM+0xff001a08>
 1002ad4:	0005883a 	mov	r2,zero
 1002ad8:	003fd606 	br	1002a34 <__alt_mem_TCDM+0xff001a34>
 1002adc:	81400c17 	ldw	r5,48(r16)
 1002ae0:	28000626 	beq	r5,zero,1002afc <__swsetup_r+0x124>
 1002ae4:	80801004 	addi	r2,r16,64
 1002ae8:	28800326 	beq	r5,r2,1002af8 <__swsetup_r+0x120>
 1002aec:	8809883a 	mov	r4,r17
 1002af0:	1004b200 	call	1004b20 <_free_r>
 1002af4:	8100030b 	ldhu	r4,12(r16)
 1002af8:	80000c15 	stw	zero,48(r16)
 1002afc:	80c00417 	ldw	r3,16(r16)
 1002b00:	00bff6c4 	movi	r2,-37
 1002b04:	1108703a 	and	r4,r2,r4
 1002b08:	80000115 	stw	zero,4(r16)
 1002b0c:	80c00015 	stw	r3,0(r16)
 1002b10:	003fd506 	br	1002a68 <__alt_mem_TCDM+0xff001a68>
 1002b14:	00800244 	movi	r2,9
 1002b18:	88800015 	stw	r2,0(r17)
 1002b1c:	20801014 	ori	r2,r4,64
 1002b20:	8080030d 	sth	r2,12(r16)
 1002b24:	00bfffc4 	movi	r2,-1
 1002b28:	003fc506 	br	1002a40 <__alt_mem_TCDM+0xff001a40>

01002b2c <quorem>:
 1002b2c:	defff704 	addi	sp,sp,-36
 1002b30:	dc800215 	stw	r18,8(sp)
 1002b34:	20800417 	ldw	r2,16(r4)
 1002b38:	2c800417 	ldw	r18,16(r5)
 1002b3c:	dfc00815 	stw	ra,32(sp)
 1002b40:	ddc00715 	stw	r23,28(sp)
 1002b44:	dd800615 	stw	r22,24(sp)
 1002b48:	dd400515 	stw	r21,20(sp)
 1002b4c:	dd000415 	stw	r20,16(sp)
 1002b50:	dcc00315 	stw	r19,12(sp)
 1002b54:	dc400115 	stw	r17,4(sp)
 1002b58:	dc000015 	stw	r16,0(sp)
 1002b5c:	14807116 	blt	r2,r18,1002d24 <quorem+0x1f8>
 1002b60:	94bfffc4 	addi	r18,r18,-1
 1002b64:	94ad883a 	add	r22,r18,r18
 1002b68:	b5ad883a 	add	r22,r22,r22
 1002b6c:	2c400504 	addi	r17,r5,20
 1002b70:	8da9883a 	add	r20,r17,r22
 1002b74:	25400504 	addi	r21,r4,20
 1002b78:	282f883a 	mov	r23,r5
 1002b7c:	adad883a 	add	r22,r21,r22
 1002b80:	a1400017 	ldw	r5,0(r20)
 1002b84:	2021883a 	mov	r16,r4
 1002b88:	b1000017 	ldw	r4,0(r22)
 1002b8c:	29400044 	addi	r5,r5,1
 1002b90:	100a72c0 	call	100a72c <__udivsi3>
 1002b94:	1027883a 	mov	r19,r2
 1002b98:	10002c26 	beq	r2,zero,1002c4c <quorem+0x120>
 1002b9c:	a813883a 	mov	r9,r21
 1002ba0:	880b883a 	mov	r5,r17
 1002ba4:	0009883a 	mov	r4,zero
 1002ba8:	000d883a 	mov	r6,zero
 1002bac:	2a000017 	ldw	r8,0(r5)
 1002bb0:	49c00017 	ldw	r7,0(r9)
 1002bb4:	29400104 	addi	r5,r5,4
 1002bb8:	40bfffcc 	andi	r2,r8,65535
 1002bbc:	14c5383a 	mul	r2,r2,r19
 1002bc0:	4010d43a 	srli	r8,r8,16
 1002bc4:	38ffffcc 	andi	r3,r7,65535
 1002bc8:	1105883a 	add	r2,r2,r4
 1002bcc:	1008d43a 	srli	r4,r2,16
 1002bd0:	44d1383a 	mul	r8,r8,r19
 1002bd4:	198d883a 	add	r6,r3,r6
 1002bd8:	10ffffcc 	andi	r3,r2,65535
 1002bdc:	30c7c83a 	sub	r3,r6,r3
 1002be0:	380ed43a 	srli	r7,r7,16
 1002be4:	4105883a 	add	r2,r8,r4
 1002be8:	180dd43a 	srai	r6,r3,16
 1002bec:	113fffcc 	andi	r4,r2,65535
 1002bf0:	390fc83a 	sub	r7,r7,r4
 1002bf4:	398d883a 	add	r6,r7,r6
 1002bf8:	300e943a 	slli	r7,r6,16
 1002bfc:	18ffffcc 	andi	r3,r3,65535
 1002c00:	1008d43a 	srli	r4,r2,16
 1002c04:	38ceb03a 	or	r7,r7,r3
 1002c08:	49c00015 	stw	r7,0(r9)
 1002c0c:	300dd43a 	srai	r6,r6,16
 1002c10:	4a400104 	addi	r9,r9,4
 1002c14:	a17fe52e 	bgeu	r20,r5,1002bac <__alt_mem_TCDM+0xff001bac>
 1002c18:	b0800017 	ldw	r2,0(r22)
 1002c1c:	10000b1e 	bne	r2,zero,1002c4c <quorem+0x120>
 1002c20:	b0bfff04 	addi	r2,r22,-4
 1002c24:	a880082e 	bgeu	r21,r2,1002c48 <quorem+0x11c>
 1002c28:	b0ffff17 	ldw	r3,-4(r22)
 1002c2c:	18000326 	beq	r3,zero,1002c3c <quorem+0x110>
 1002c30:	00000506 	br	1002c48 <quorem+0x11c>
 1002c34:	10c00017 	ldw	r3,0(r2)
 1002c38:	1800031e 	bne	r3,zero,1002c48 <quorem+0x11c>
 1002c3c:	10bfff04 	addi	r2,r2,-4
 1002c40:	94bfffc4 	addi	r18,r18,-1
 1002c44:	a8bffb36 	bltu	r21,r2,1002c34 <__alt_mem_TCDM+0xff001c34>
 1002c48:	84800415 	stw	r18,16(r16)
 1002c4c:	b80b883a 	mov	r5,r23
 1002c50:	8009883a 	mov	r4,r16
 1002c54:	1006c900 	call	1006c90 <__mcmp>
 1002c58:	10002616 	blt	r2,zero,1002cf4 <quorem+0x1c8>
 1002c5c:	9cc00044 	addi	r19,r19,1
 1002c60:	a805883a 	mov	r2,r21
 1002c64:	000b883a 	mov	r5,zero
 1002c68:	11000017 	ldw	r4,0(r2)
 1002c6c:	89800017 	ldw	r6,0(r17)
 1002c70:	10800104 	addi	r2,r2,4
 1002c74:	20ffffcc 	andi	r3,r4,65535
 1002c78:	194b883a 	add	r5,r3,r5
 1002c7c:	30ffffcc 	andi	r3,r6,65535
 1002c80:	28c7c83a 	sub	r3,r5,r3
 1002c84:	300cd43a 	srli	r6,r6,16
 1002c88:	2008d43a 	srli	r4,r4,16
 1002c8c:	180bd43a 	srai	r5,r3,16
 1002c90:	18ffffcc 	andi	r3,r3,65535
 1002c94:	2189c83a 	sub	r4,r4,r6
 1002c98:	2149883a 	add	r4,r4,r5
 1002c9c:	200c943a 	slli	r6,r4,16
 1002ca0:	8c400104 	addi	r17,r17,4
 1002ca4:	200bd43a 	srai	r5,r4,16
 1002ca8:	30c6b03a 	or	r3,r6,r3
 1002cac:	10ffff15 	stw	r3,-4(r2)
 1002cb0:	a47fed2e 	bgeu	r20,r17,1002c68 <__alt_mem_TCDM+0xff001c68>
 1002cb4:	9485883a 	add	r2,r18,r18
 1002cb8:	1085883a 	add	r2,r2,r2
 1002cbc:	a887883a 	add	r3,r21,r2
 1002cc0:	18800017 	ldw	r2,0(r3)
 1002cc4:	10000b1e 	bne	r2,zero,1002cf4 <quorem+0x1c8>
 1002cc8:	18bfff04 	addi	r2,r3,-4
 1002ccc:	a880082e 	bgeu	r21,r2,1002cf0 <quorem+0x1c4>
 1002cd0:	18ffff17 	ldw	r3,-4(r3)
 1002cd4:	18000326 	beq	r3,zero,1002ce4 <quorem+0x1b8>
 1002cd8:	00000506 	br	1002cf0 <quorem+0x1c4>
 1002cdc:	10c00017 	ldw	r3,0(r2)
 1002ce0:	1800031e 	bne	r3,zero,1002cf0 <quorem+0x1c4>
 1002ce4:	10bfff04 	addi	r2,r2,-4
 1002ce8:	94bfffc4 	addi	r18,r18,-1
 1002cec:	a8bffb36 	bltu	r21,r2,1002cdc <__alt_mem_TCDM+0xff001cdc>
 1002cf0:	84800415 	stw	r18,16(r16)
 1002cf4:	9805883a 	mov	r2,r19
 1002cf8:	dfc00817 	ldw	ra,32(sp)
 1002cfc:	ddc00717 	ldw	r23,28(sp)
 1002d00:	dd800617 	ldw	r22,24(sp)
 1002d04:	dd400517 	ldw	r21,20(sp)
 1002d08:	dd000417 	ldw	r20,16(sp)
 1002d0c:	dcc00317 	ldw	r19,12(sp)
 1002d10:	dc800217 	ldw	r18,8(sp)
 1002d14:	dc400117 	ldw	r17,4(sp)
 1002d18:	dc000017 	ldw	r16,0(sp)
 1002d1c:	dec00904 	addi	sp,sp,36
 1002d20:	f800283a 	ret
 1002d24:	0005883a 	mov	r2,zero
 1002d28:	003ff306 	br	1002cf8 <__alt_mem_TCDM+0xff001cf8>

01002d2c <_dtoa_r>:
 1002d2c:	20801017 	ldw	r2,64(r4)
 1002d30:	deffde04 	addi	sp,sp,-136
 1002d34:	df002015 	stw	fp,128(sp)
 1002d38:	dcc01b15 	stw	r19,108(sp)
 1002d3c:	dc801a15 	stw	r18,104(sp)
 1002d40:	dc401915 	stw	r17,100(sp)
 1002d44:	dc001815 	stw	r16,96(sp)
 1002d48:	dfc02115 	stw	ra,132(sp)
 1002d4c:	ddc01f15 	stw	r23,124(sp)
 1002d50:	dd801e15 	stw	r22,120(sp)
 1002d54:	dd401d15 	stw	r21,116(sp)
 1002d58:	dd001c15 	stw	r20,112(sp)
 1002d5c:	d9c00315 	stw	r7,12(sp)
 1002d60:	2039883a 	mov	fp,r4
 1002d64:	3023883a 	mov	r17,r6
 1002d68:	2825883a 	mov	r18,r5
 1002d6c:	dc002417 	ldw	r16,144(sp)
 1002d70:	3027883a 	mov	r19,r6
 1002d74:	10000826 	beq	r2,zero,1002d98 <_dtoa_r+0x6c>
 1002d78:	21801117 	ldw	r6,68(r4)
 1002d7c:	00c00044 	movi	r3,1
 1002d80:	100b883a 	mov	r5,r2
 1002d84:	1986983a 	sll	r3,r3,r6
 1002d88:	11800115 	stw	r6,4(r2)
 1002d8c:	10c00215 	stw	r3,8(r2)
 1002d90:	10064700 	call	1006470 <_Bfree>
 1002d94:	e0001015 	stw	zero,64(fp)
 1002d98:	88002e16 	blt	r17,zero,1002e54 <_dtoa_r+0x128>
 1002d9c:	80000015 	stw	zero,0(r16)
 1002da0:	889ffc2c 	andhi	r2,r17,32752
 1002da4:	00dffc34 	movhi	r3,32752
 1002da8:	10c01c26 	beq	r2,r3,1002e1c <_dtoa_r+0xf0>
 1002dac:	000d883a 	mov	r6,zero
 1002db0:	000f883a 	mov	r7,zero
 1002db4:	9009883a 	mov	r4,r18
 1002db8:	980b883a 	mov	r5,r19
 1002dbc:	100b97c0 	call	100b97c <__eqdf2>
 1002dc0:	10002b1e 	bne	r2,zero,1002e70 <_dtoa_r+0x144>
 1002dc4:	d9c02317 	ldw	r7,140(sp)
 1002dc8:	00800044 	movi	r2,1
 1002dcc:	38800015 	stw	r2,0(r7)
 1002dd0:	d8802517 	ldw	r2,148(sp)
 1002dd4:	10019e26 	beq	r2,zero,1003450 <_dtoa_r+0x724>
 1002dd8:	d8c02517 	ldw	r3,148(sp)
 1002ddc:	00804074 	movhi	r2,257
 1002de0:	10bf6544 	addi	r2,r2,-619
 1002de4:	18800015 	stw	r2,0(r3)
 1002de8:	10bfffc4 	addi	r2,r2,-1
 1002dec:	dfc02117 	ldw	ra,132(sp)
 1002df0:	df002017 	ldw	fp,128(sp)
 1002df4:	ddc01f17 	ldw	r23,124(sp)
 1002df8:	dd801e17 	ldw	r22,120(sp)
 1002dfc:	dd401d17 	ldw	r21,116(sp)
 1002e00:	dd001c17 	ldw	r20,112(sp)
 1002e04:	dcc01b17 	ldw	r19,108(sp)
 1002e08:	dc801a17 	ldw	r18,104(sp)
 1002e0c:	dc401917 	ldw	r17,100(sp)
 1002e10:	dc001817 	ldw	r16,96(sp)
 1002e14:	dec02204 	addi	sp,sp,136
 1002e18:	f800283a 	ret
 1002e1c:	d8c02317 	ldw	r3,140(sp)
 1002e20:	0089c3c4 	movi	r2,9999
 1002e24:	18800015 	stw	r2,0(r3)
 1002e28:	90017726 	beq	r18,zero,1003408 <_dtoa_r+0x6dc>
 1002e2c:	00804074 	movhi	r2,257
 1002e30:	10bf7104 	addi	r2,r2,-572
 1002e34:	d9002517 	ldw	r4,148(sp)
 1002e38:	203fec26 	beq	r4,zero,1002dec <__alt_mem_TCDM+0xff001dec>
 1002e3c:	10c000c7 	ldb	r3,3(r2)
 1002e40:	1801781e 	bne	r3,zero,1003424 <_dtoa_r+0x6f8>
 1002e44:	10c000c4 	addi	r3,r2,3
 1002e48:	d9802517 	ldw	r6,148(sp)
 1002e4c:	30c00015 	stw	r3,0(r6)
 1002e50:	003fe606 	br	1002dec <__alt_mem_TCDM+0xff001dec>
 1002e54:	04e00034 	movhi	r19,32768
 1002e58:	9cffffc4 	addi	r19,r19,-1
 1002e5c:	00800044 	movi	r2,1
 1002e60:	8ce6703a 	and	r19,r17,r19
 1002e64:	80800015 	stw	r2,0(r16)
 1002e68:	9823883a 	mov	r17,r19
 1002e6c:	003fcc06 	br	1002da0 <__alt_mem_TCDM+0xff001da0>
 1002e70:	d8800204 	addi	r2,sp,8
 1002e74:	d8800015 	stw	r2,0(sp)
 1002e78:	d9c00104 	addi	r7,sp,4
 1002e7c:	900b883a 	mov	r5,r18
 1002e80:	980d883a 	mov	r6,r19
 1002e84:	e009883a 	mov	r4,fp
 1002e88:	8820d53a 	srli	r16,r17,20
 1002e8c:	100705c0 	call	100705c <__d2b>
 1002e90:	d8800915 	stw	r2,36(sp)
 1002e94:	8001651e 	bne	r16,zero,100342c <_dtoa_r+0x700>
 1002e98:	dd800217 	ldw	r22,8(sp)
 1002e9c:	dc000117 	ldw	r16,4(sp)
 1002ea0:	00800804 	movi	r2,32
 1002ea4:	b421883a 	add	r16,r22,r16
 1002ea8:	80c10c84 	addi	r3,r16,1074
 1002eac:	10c2d10e 	bge	r2,r3,10039f4 <_dtoa_r+0xcc8>
 1002eb0:	00801004 	movi	r2,64
 1002eb4:	81010484 	addi	r4,r16,1042
 1002eb8:	10c7c83a 	sub	r3,r2,r3
 1002ebc:	9108d83a 	srl	r4,r18,r4
 1002ec0:	88e2983a 	sll	r17,r17,r3
 1002ec4:	2448b03a 	or	r4,r4,r17
 1002ec8:	100cd440 	call	100cd44 <__floatunsidf>
 1002ecc:	017f8434 	movhi	r5,65040
 1002ed0:	01800044 	movi	r6,1
 1002ed4:	1009883a 	mov	r4,r2
 1002ed8:	194b883a 	add	r5,r3,r5
 1002edc:	843fffc4 	addi	r16,r16,-1
 1002ee0:	d9801115 	stw	r6,68(sp)
 1002ee4:	000d883a 	mov	r6,zero
 1002ee8:	01cffe34 	movhi	r7,16376
 1002eec:	100c2ec0 	call	100c2ec <__subdf3>
 1002ef0:	0198dbf4 	movhi	r6,25455
 1002ef4:	01cff4f4 	movhi	r7,16339
 1002ef8:	3190d844 	addi	r6,r6,17249
 1002efc:	39e1e9c4 	addi	r7,r7,-30809
 1002f00:	1009883a 	mov	r4,r2
 1002f04:	180b883a 	mov	r5,r3
 1002f08:	100bbd40 	call	100bbd4 <__muldf3>
 1002f0c:	01a2d874 	movhi	r6,35681
 1002f10:	01cff1f4 	movhi	r7,16327
 1002f14:	31b22cc4 	addi	r6,r6,-14157
 1002f18:	39e28a04 	addi	r7,r7,-30168
 1002f1c:	180b883a 	mov	r5,r3
 1002f20:	1009883a 	mov	r4,r2
 1002f24:	100a7e80 	call	100a7e8 <__adddf3>
 1002f28:	8009883a 	mov	r4,r16
 1002f2c:	1029883a 	mov	r20,r2
 1002f30:	1823883a 	mov	r17,r3
 1002f34:	100cc680 	call	100cc68 <__floatsidf>
 1002f38:	019427f4 	movhi	r6,20639
 1002f3c:	01cff4f4 	movhi	r7,16339
 1002f40:	319e7ec4 	addi	r6,r6,31227
 1002f44:	39d104c4 	addi	r7,r7,17427
 1002f48:	1009883a 	mov	r4,r2
 1002f4c:	180b883a 	mov	r5,r3
 1002f50:	100bbd40 	call	100bbd4 <__muldf3>
 1002f54:	100d883a 	mov	r6,r2
 1002f58:	180f883a 	mov	r7,r3
 1002f5c:	a009883a 	mov	r4,r20
 1002f60:	880b883a 	mov	r5,r17
 1002f64:	100a7e80 	call	100a7e8 <__adddf3>
 1002f68:	1009883a 	mov	r4,r2
 1002f6c:	180b883a 	mov	r5,r3
 1002f70:	1029883a 	mov	r20,r2
 1002f74:	1823883a 	mov	r17,r3
 1002f78:	100cbe80 	call	100cbe8 <__fixdfsi>
 1002f7c:	000d883a 	mov	r6,zero
 1002f80:	000f883a 	mov	r7,zero
 1002f84:	a009883a 	mov	r4,r20
 1002f88:	880b883a 	mov	r5,r17
 1002f8c:	d8800515 	stw	r2,20(sp)
 1002f90:	100bae00 	call	100bae0 <__ledf2>
 1002f94:	10028716 	blt	r2,zero,10039b4 <_dtoa_r+0xc88>
 1002f98:	d8c00517 	ldw	r3,20(sp)
 1002f9c:	00800584 	movi	r2,22
 1002fa0:	10c27536 	bltu	r2,r3,1003978 <_dtoa_r+0xc4c>
 1002fa4:	180490fa 	slli	r2,r3,3
 1002fa8:	00c04074 	movhi	r3,257
 1002fac:	18ff8d04 	addi	r3,r3,-460
 1002fb0:	1885883a 	add	r2,r3,r2
 1002fb4:	11000017 	ldw	r4,0(r2)
 1002fb8:	11400117 	ldw	r5,4(r2)
 1002fbc:	900d883a 	mov	r6,r18
 1002fc0:	980f883a 	mov	r7,r19
 1002fc4:	100ba040 	call	100ba04 <__gedf2>
 1002fc8:	00828d0e 	bge	zero,r2,1003a00 <_dtoa_r+0xcd4>
 1002fcc:	d9000517 	ldw	r4,20(sp)
 1002fd0:	d8000e15 	stw	zero,56(sp)
 1002fd4:	213fffc4 	addi	r4,r4,-1
 1002fd8:	d9000515 	stw	r4,20(sp)
 1002fdc:	b42dc83a 	sub	r22,r22,r16
 1002fe0:	b5bfffc4 	addi	r22,r22,-1
 1002fe4:	b0026f16 	blt	r22,zero,10039a4 <_dtoa_r+0xc78>
 1002fe8:	d8000815 	stw	zero,32(sp)
 1002fec:	d9c00517 	ldw	r7,20(sp)
 1002ff0:	38026416 	blt	r7,zero,1003984 <_dtoa_r+0xc58>
 1002ff4:	b1ed883a 	add	r22,r22,r7
 1002ff8:	d9c00d15 	stw	r7,52(sp)
 1002ffc:	d8000a15 	stw	zero,40(sp)
 1003000:	d9800317 	ldw	r6,12(sp)
 1003004:	00800244 	movi	r2,9
 1003008:	11811436 	bltu	r2,r6,100345c <_dtoa_r+0x730>
 100300c:	00800144 	movi	r2,5
 1003010:	1184e10e 	bge	r2,r6,1004398 <_dtoa_r+0x166c>
 1003014:	31bfff04 	addi	r6,r6,-4
 1003018:	d9800315 	stw	r6,12(sp)
 100301c:	0023883a 	mov	r17,zero
 1003020:	d9800317 	ldw	r6,12(sp)
 1003024:	008000c4 	movi	r2,3
 1003028:	30836726 	beq	r6,r2,1003dc8 <_dtoa_r+0x109c>
 100302c:	1183410e 	bge	r2,r6,1003d34 <_dtoa_r+0x1008>
 1003030:	d9c00317 	ldw	r7,12(sp)
 1003034:	00800104 	movi	r2,4
 1003038:	38827c26 	beq	r7,r2,1003a2c <_dtoa_r+0xd00>
 100303c:	00800144 	movi	r2,5
 1003040:	3884c41e 	bne	r7,r2,1004354 <_dtoa_r+0x1628>
 1003044:	00800044 	movi	r2,1
 1003048:	d8800b15 	stw	r2,44(sp)
 100304c:	d8c00517 	ldw	r3,20(sp)
 1003050:	d9002217 	ldw	r4,136(sp)
 1003054:	1907883a 	add	r3,r3,r4
 1003058:	19800044 	addi	r6,r3,1
 100305c:	d8c00c15 	stw	r3,48(sp)
 1003060:	d9800615 	stw	r6,24(sp)
 1003064:	0183a40e 	bge	zero,r6,1003ef8 <_dtoa_r+0x11cc>
 1003068:	d9800617 	ldw	r6,24(sp)
 100306c:	3021883a 	mov	r16,r6
 1003070:	e0001115 	stw	zero,68(fp)
 1003074:	008005c4 	movi	r2,23
 1003078:	1184c92e 	bgeu	r2,r6,10043a0 <_dtoa_r+0x1674>
 100307c:	00c00044 	movi	r3,1
 1003080:	00800104 	movi	r2,4
 1003084:	1085883a 	add	r2,r2,r2
 1003088:	11000504 	addi	r4,r2,20
 100308c:	180b883a 	mov	r5,r3
 1003090:	18c00044 	addi	r3,r3,1
 1003094:	313ffb2e 	bgeu	r6,r4,1003084 <__alt_mem_TCDM+0xff002084>
 1003098:	e1401115 	stw	r5,68(fp)
 100309c:	e009883a 	mov	r4,fp
 10030a0:	10063c80 	call	10063c8 <_Balloc>
 10030a4:	d8800715 	stw	r2,28(sp)
 10030a8:	e0801015 	stw	r2,64(fp)
 10030ac:	00800384 	movi	r2,14
 10030b0:	1400f736 	bltu	r2,r16,1003490 <_dtoa_r+0x764>
 10030b4:	8800f626 	beq	r17,zero,1003490 <_dtoa_r+0x764>
 10030b8:	d9c00517 	ldw	r7,20(sp)
 10030bc:	01c39a0e 	bge	zero,r7,1003f28 <_dtoa_r+0x11fc>
 10030c0:	388003cc 	andi	r2,r7,15
 10030c4:	100490fa 	slli	r2,r2,3
 10030c8:	382bd13a 	srai	r21,r7,4
 10030cc:	00c04074 	movhi	r3,257
 10030d0:	18ff8d04 	addi	r3,r3,-460
 10030d4:	1885883a 	add	r2,r3,r2
 10030d8:	a8c0040c 	andi	r3,r21,16
 10030dc:	12400017 	ldw	r9,0(r2)
 10030e0:	12000117 	ldw	r8,4(r2)
 10030e4:	18037926 	beq	r3,zero,1003ecc <_dtoa_r+0x11a0>
 10030e8:	00804074 	movhi	r2,257
 10030ec:	10bf8304 	addi	r2,r2,-500
 10030f0:	11800817 	ldw	r6,32(r2)
 10030f4:	11c00917 	ldw	r7,36(r2)
 10030f8:	9009883a 	mov	r4,r18
 10030fc:	980b883a 	mov	r5,r19
 1003100:	da001715 	stw	r8,92(sp)
 1003104:	da401615 	stw	r9,88(sp)
 1003108:	100b0940 	call	100b094 <__divdf3>
 100310c:	da001717 	ldw	r8,92(sp)
 1003110:	da401617 	ldw	r9,88(sp)
 1003114:	ad4003cc 	andi	r21,r21,15
 1003118:	040000c4 	movi	r16,3
 100311c:	1023883a 	mov	r17,r2
 1003120:	1829883a 	mov	r20,r3
 1003124:	a8001126 	beq	r21,zero,100316c <_dtoa_r+0x440>
 1003128:	05c04074 	movhi	r23,257
 100312c:	bdff8304 	addi	r23,r23,-500
 1003130:	4805883a 	mov	r2,r9
 1003134:	4007883a 	mov	r3,r8
 1003138:	a980004c 	andi	r6,r21,1
 100313c:	1009883a 	mov	r4,r2
 1003140:	a82bd07a 	srai	r21,r21,1
 1003144:	180b883a 	mov	r5,r3
 1003148:	30000426 	beq	r6,zero,100315c <_dtoa_r+0x430>
 100314c:	b9800017 	ldw	r6,0(r23)
 1003150:	b9c00117 	ldw	r7,4(r23)
 1003154:	84000044 	addi	r16,r16,1
 1003158:	100bbd40 	call	100bbd4 <__muldf3>
 100315c:	bdc00204 	addi	r23,r23,8
 1003160:	a83ff51e 	bne	r21,zero,1003138 <__alt_mem_TCDM+0xff002138>
 1003164:	1013883a 	mov	r9,r2
 1003168:	1811883a 	mov	r8,r3
 100316c:	480d883a 	mov	r6,r9
 1003170:	400f883a 	mov	r7,r8
 1003174:	8809883a 	mov	r4,r17
 1003178:	a00b883a 	mov	r5,r20
 100317c:	100b0940 	call	100b094 <__divdf3>
 1003180:	d8800f15 	stw	r2,60(sp)
 1003184:	d8c01015 	stw	r3,64(sp)
 1003188:	d8c00e17 	ldw	r3,56(sp)
 100318c:	18000626 	beq	r3,zero,10031a8 <_dtoa_r+0x47c>
 1003190:	d9000f17 	ldw	r4,60(sp)
 1003194:	d9401017 	ldw	r5,64(sp)
 1003198:	000d883a 	mov	r6,zero
 100319c:	01cffc34 	movhi	r7,16368
 10031a0:	100bae00 	call	100bae0 <__ledf2>
 10031a4:	10040b16 	blt	r2,zero,10041d4 <_dtoa_r+0x14a8>
 10031a8:	8009883a 	mov	r4,r16
 10031ac:	100cc680 	call	100cc68 <__floatsidf>
 10031b0:	d9800f17 	ldw	r6,60(sp)
 10031b4:	d9c01017 	ldw	r7,64(sp)
 10031b8:	1009883a 	mov	r4,r2
 10031bc:	180b883a 	mov	r5,r3
 10031c0:	100bbd40 	call	100bbd4 <__muldf3>
 10031c4:	000d883a 	mov	r6,zero
 10031c8:	01d00734 	movhi	r7,16412
 10031cc:	1009883a 	mov	r4,r2
 10031d0:	180b883a 	mov	r5,r3
 10031d4:	100a7e80 	call	100a7e8 <__adddf3>
 10031d8:	1021883a 	mov	r16,r2
 10031dc:	d8800617 	ldw	r2,24(sp)
 10031e0:	047f3034 	movhi	r17,64704
 10031e4:	1c63883a 	add	r17,r3,r17
 10031e8:	10031826 	beq	r2,zero,1003e4c <_dtoa_r+0x1120>
 10031ec:	d8c00517 	ldw	r3,20(sp)
 10031f0:	db000617 	ldw	r12,24(sp)
 10031f4:	d8c01315 	stw	r3,76(sp)
 10031f8:	d9000b17 	ldw	r4,44(sp)
 10031fc:	20038f26 	beq	r4,zero,100403c <_dtoa_r+0x1310>
 1003200:	60bfffc4 	addi	r2,r12,-1
 1003204:	100490fa 	slli	r2,r2,3
 1003208:	00c04074 	movhi	r3,257
 100320c:	18ff8d04 	addi	r3,r3,-460
 1003210:	1885883a 	add	r2,r3,r2
 1003214:	11800017 	ldw	r6,0(r2)
 1003218:	11c00117 	ldw	r7,4(r2)
 100321c:	d8800717 	ldw	r2,28(sp)
 1003220:	0009883a 	mov	r4,zero
 1003224:	014ff834 	movhi	r5,16352
 1003228:	db001615 	stw	r12,88(sp)
 100322c:	15c00044 	addi	r23,r2,1
 1003230:	100b0940 	call	100b094 <__divdf3>
 1003234:	800d883a 	mov	r6,r16
 1003238:	880f883a 	mov	r7,r17
 100323c:	1009883a 	mov	r4,r2
 1003240:	180b883a 	mov	r5,r3
 1003244:	100c2ec0 	call	100c2ec <__subdf3>
 1003248:	d9401017 	ldw	r5,64(sp)
 100324c:	d9000f17 	ldw	r4,60(sp)
 1003250:	102b883a 	mov	r21,r2
 1003254:	d8c01215 	stw	r3,72(sp)
 1003258:	100cbe80 	call	100cbe8 <__fixdfsi>
 100325c:	1009883a 	mov	r4,r2
 1003260:	1029883a 	mov	r20,r2
 1003264:	100cc680 	call	100cc68 <__floatsidf>
 1003268:	d9000f17 	ldw	r4,60(sp)
 100326c:	d9401017 	ldw	r5,64(sp)
 1003270:	100d883a 	mov	r6,r2
 1003274:	180f883a 	mov	r7,r3
 1003278:	100c2ec0 	call	100c2ec <__subdf3>
 100327c:	1823883a 	mov	r17,r3
 1003280:	d8c00717 	ldw	r3,28(sp)
 1003284:	d9401217 	ldw	r5,72(sp)
 1003288:	a2000c04 	addi	r8,r20,48
 100328c:	1021883a 	mov	r16,r2
 1003290:	1a000005 	stb	r8,0(r3)
 1003294:	800d883a 	mov	r6,r16
 1003298:	880f883a 	mov	r7,r17
 100329c:	a809883a 	mov	r4,r21
 10032a0:	4029883a 	mov	r20,r8
 10032a4:	100ba040 	call	100ba04 <__gedf2>
 10032a8:	00841d16 	blt	zero,r2,1004320 <_dtoa_r+0x15f4>
 10032ac:	800d883a 	mov	r6,r16
 10032b0:	880f883a 	mov	r7,r17
 10032b4:	0009883a 	mov	r4,zero
 10032b8:	014ffc34 	movhi	r5,16368
 10032bc:	100c2ec0 	call	100c2ec <__subdf3>
 10032c0:	d9401217 	ldw	r5,72(sp)
 10032c4:	100d883a 	mov	r6,r2
 10032c8:	180f883a 	mov	r7,r3
 10032cc:	a809883a 	mov	r4,r21
 10032d0:	100ba040 	call	100ba04 <__gedf2>
 10032d4:	db001617 	ldw	r12,88(sp)
 10032d8:	00840e16 	blt	zero,r2,1004314 <_dtoa_r+0x15e8>
 10032dc:	00800044 	movi	r2,1
 10032e0:	13006b0e 	bge	r2,r12,1003490 <_dtoa_r+0x764>
 10032e4:	d9000717 	ldw	r4,28(sp)
 10032e8:	dd800f15 	stw	r22,60(sp)
 10032ec:	dcc01015 	stw	r19,64(sp)
 10032f0:	2319883a 	add	r12,r4,r12
 10032f4:	dcc01217 	ldw	r19,72(sp)
 10032f8:	602d883a 	mov	r22,r12
 10032fc:	dc801215 	stw	r18,72(sp)
 1003300:	b825883a 	mov	r18,r23
 1003304:	00000906 	br	100332c <_dtoa_r+0x600>
 1003308:	100c2ec0 	call	100c2ec <__subdf3>
 100330c:	a80d883a 	mov	r6,r21
 1003310:	980f883a 	mov	r7,r19
 1003314:	1009883a 	mov	r4,r2
 1003318:	180b883a 	mov	r5,r3
 100331c:	100bae00 	call	100bae0 <__ledf2>
 1003320:	1003e816 	blt	r2,zero,10042c4 <_dtoa_r+0x1598>
 1003324:	b825883a 	mov	r18,r23
 1003328:	bd83e926 	beq	r23,r22,10042d0 <_dtoa_r+0x15a4>
 100332c:	a809883a 	mov	r4,r21
 1003330:	980b883a 	mov	r5,r19
 1003334:	000d883a 	mov	r6,zero
 1003338:	01d00934 	movhi	r7,16420
 100333c:	100bbd40 	call	100bbd4 <__muldf3>
 1003340:	000d883a 	mov	r6,zero
 1003344:	01d00934 	movhi	r7,16420
 1003348:	8009883a 	mov	r4,r16
 100334c:	880b883a 	mov	r5,r17
 1003350:	102b883a 	mov	r21,r2
 1003354:	1827883a 	mov	r19,r3
 1003358:	100bbd40 	call	100bbd4 <__muldf3>
 100335c:	180b883a 	mov	r5,r3
 1003360:	1009883a 	mov	r4,r2
 1003364:	1821883a 	mov	r16,r3
 1003368:	1023883a 	mov	r17,r2
 100336c:	100cbe80 	call	100cbe8 <__fixdfsi>
 1003370:	1009883a 	mov	r4,r2
 1003374:	1029883a 	mov	r20,r2
 1003378:	100cc680 	call	100cc68 <__floatsidf>
 100337c:	8809883a 	mov	r4,r17
 1003380:	800b883a 	mov	r5,r16
 1003384:	100d883a 	mov	r6,r2
 1003388:	180f883a 	mov	r7,r3
 100338c:	100c2ec0 	call	100c2ec <__subdf3>
 1003390:	a5000c04 	addi	r20,r20,48
 1003394:	a80d883a 	mov	r6,r21
 1003398:	980f883a 	mov	r7,r19
 100339c:	1009883a 	mov	r4,r2
 10033a0:	180b883a 	mov	r5,r3
 10033a4:	95000005 	stb	r20,0(r18)
 10033a8:	1021883a 	mov	r16,r2
 10033ac:	1823883a 	mov	r17,r3
 10033b0:	100bae00 	call	100bae0 <__ledf2>
 10033b4:	bdc00044 	addi	r23,r23,1
 10033b8:	800d883a 	mov	r6,r16
 10033bc:	880f883a 	mov	r7,r17
 10033c0:	0009883a 	mov	r4,zero
 10033c4:	014ffc34 	movhi	r5,16368
 10033c8:	103fcf0e 	bge	r2,zero,1003308 <__alt_mem_TCDM+0xff002308>
 10033cc:	d8c01317 	ldw	r3,76(sp)
 10033d0:	d8c00515 	stw	r3,20(sp)
 10033d4:	d9400917 	ldw	r5,36(sp)
 10033d8:	e009883a 	mov	r4,fp
 10033dc:	10064700 	call	1006470 <_Bfree>
 10033e0:	d9000517 	ldw	r4,20(sp)
 10033e4:	d9802317 	ldw	r6,140(sp)
 10033e8:	d9c02517 	ldw	r7,148(sp)
 10033ec:	b8000005 	stb	zero,0(r23)
 10033f0:	20800044 	addi	r2,r4,1
 10033f4:	30800015 	stw	r2,0(r6)
 10033f8:	3802aa26 	beq	r7,zero,1003ea4 <_dtoa_r+0x1178>
 10033fc:	3dc00015 	stw	r23,0(r7)
 1003400:	d8800717 	ldw	r2,28(sp)
 1003404:	003e7906 	br	1002dec <__alt_mem_TCDM+0xff001dec>
 1003408:	00800434 	movhi	r2,16
 100340c:	10bfffc4 	addi	r2,r2,-1
 1003410:	88a2703a 	and	r17,r17,r2
 1003414:	883e851e 	bne	r17,zero,1002e2c <__alt_mem_TCDM+0xff001e2c>
 1003418:	00804074 	movhi	r2,257
 100341c:	10bf6e04 	addi	r2,r2,-584
 1003420:	003e8406 	br	1002e34 <__alt_mem_TCDM+0xff001e34>
 1003424:	10c00204 	addi	r3,r2,8
 1003428:	003e8706 	br	1002e48 <__alt_mem_TCDM+0xff001e48>
 100342c:	01400434 	movhi	r5,16
 1003430:	297fffc4 	addi	r5,r5,-1
 1003434:	994a703a 	and	r5,r19,r5
 1003438:	9009883a 	mov	r4,r18
 100343c:	843f0044 	addi	r16,r16,-1023
 1003440:	294ffc34 	orhi	r5,r5,16368
 1003444:	dd800217 	ldw	r22,8(sp)
 1003448:	d8001115 	stw	zero,68(sp)
 100344c:	003ea506 	br	1002ee4 <__alt_mem_TCDM+0xff001ee4>
 1003450:	00804074 	movhi	r2,257
 1003454:	10bf6504 	addi	r2,r2,-620
 1003458:	003e6406 	br	1002dec <__alt_mem_TCDM+0xff001dec>
 100345c:	e0001115 	stw	zero,68(fp)
 1003460:	000b883a 	mov	r5,zero
 1003464:	e009883a 	mov	r4,fp
 1003468:	10063c80 	call	10063c8 <_Balloc>
 100346c:	01bfffc4 	movi	r6,-1
 1003470:	01c00044 	movi	r7,1
 1003474:	d8800715 	stw	r2,28(sp)
 1003478:	d9800c15 	stw	r6,48(sp)
 100347c:	e0801015 	stw	r2,64(fp)
 1003480:	d8000315 	stw	zero,12(sp)
 1003484:	d9c00b15 	stw	r7,44(sp)
 1003488:	d9800615 	stw	r6,24(sp)
 100348c:	d8002215 	stw	zero,136(sp)
 1003490:	d8800117 	ldw	r2,4(sp)
 1003494:	10008916 	blt	r2,zero,10036bc <_dtoa_r+0x990>
 1003498:	d9000517 	ldw	r4,20(sp)
 100349c:	00c00384 	movi	r3,14
 10034a0:	19008616 	blt	r3,r4,10036bc <_dtoa_r+0x990>
 10034a4:	200490fa 	slli	r2,r4,3
 10034a8:	00c04074 	movhi	r3,257
 10034ac:	d9802217 	ldw	r6,136(sp)
 10034b0:	18ff8d04 	addi	r3,r3,-460
 10034b4:	1885883a 	add	r2,r3,r2
 10034b8:	14000017 	ldw	r16,0(r2)
 10034bc:	14400117 	ldw	r17,4(r2)
 10034c0:	30016316 	blt	r6,zero,1003a50 <_dtoa_r+0xd24>
 10034c4:	800d883a 	mov	r6,r16
 10034c8:	880f883a 	mov	r7,r17
 10034cc:	9009883a 	mov	r4,r18
 10034d0:	980b883a 	mov	r5,r19
 10034d4:	100b0940 	call	100b094 <__divdf3>
 10034d8:	180b883a 	mov	r5,r3
 10034dc:	1009883a 	mov	r4,r2
 10034e0:	100cbe80 	call	100cbe8 <__fixdfsi>
 10034e4:	1009883a 	mov	r4,r2
 10034e8:	102b883a 	mov	r21,r2
 10034ec:	100cc680 	call	100cc68 <__floatsidf>
 10034f0:	800d883a 	mov	r6,r16
 10034f4:	880f883a 	mov	r7,r17
 10034f8:	1009883a 	mov	r4,r2
 10034fc:	180b883a 	mov	r5,r3
 1003500:	100bbd40 	call	100bbd4 <__muldf3>
 1003504:	100d883a 	mov	r6,r2
 1003508:	180f883a 	mov	r7,r3
 100350c:	9009883a 	mov	r4,r18
 1003510:	980b883a 	mov	r5,r19
 1003514:	100c2ec0 	call	100c2ec <__subdf3>
 1003518:	d9c00717 	ldw	r7,28(sp)
 100351c:	1009883a 	mov	r4,r2
 1003520:	a8800c04 	addi	r2,r21,48
 1003524:	38800005 	stb	r2,0(r7)
 1003528:	3dc00044 	addi	r23,r7,1
 100352c:	d9c00617 	ldw	r7,24(sp)
 1003530:	01800044 	movi	r6,1
 1003534:	180b883a 	mov	r5,r3
 1003538:	2005883a 	mov	r2,r4
 100353c:	39803826 	beq	r7,r6,1003620 <_dtoa_r+0x8f4>
 1003540:	000d883a 	mov	r6,zero
 1003544:	01d00934 	movhi	r7,16420
 1003548:	100bbd40 	call	100bbd4 <__muldf3>
 100354c:	000d883a 	mov	r6,zero
 1003550:	000f883a 	mov	r7,zero
 1003554:	1009883a 	mov	r4,r2
 1003558:	180b883a 	mov	r5,r3
 100355c:	1025883a 	mov	r18,r2
 1003560:	1827883a 	mov	r19,r3
 1003564:	100b97c0 	call	100b97c <__eqdf2>
 1003568:	103f9a26 	beq	r2,zero,10033d4 <__alt_mem_TCDM+0xff0023d4>
 100356c:	d9c00617 	ldw	r7,24(sp)
 1003570:	d8c00717 	ldw	r3,28(sp)
 1003574:	b829883a 	mov	r20,r23
 1003578:	38bfffc4 	addi	r2,r7,-1
 100357c:	18ad883a 	add	r22,r3,r2
 1003580:	00000a06 	br	10035ac <_dtoa_r+0x880>
 1003584:	100bbd40 	call	100bbd4 <__muldf3>
 1003588:	000d883a 	mov	r6,zero
 100358c:	000f883a 	mov	r7,zero
 1003590:	1009883a 	mov	r4,r2
 1003594:	180b883a 	mov	r5,r3
 1003598:	1025883a 	mov	r18,r2
 100359c:	1827883a 	mov	r19,r3
 10035a0:	b829883a 	mov	r20,r23
 10035a4:	100b97c0 	call	100b97c <__eqdf2>
 10035a8:	103f8a26 	beq	r2,zero,10033d4 <__alt_mem_TCDM+0xff0023d4>
 10035ac:	800d883a 	mov	r6,r16
 10035b0:	880f883a 	mov	r7,r17
 10035b4:	9009883a 	mov	r4,r18
 10035b8:	980b883a 	mov	r5,r19
 10035bc:	100b0940 	call	100b094 <__divdf3>
 10035c0:	180b883a 	mov	r5,r3
 10035c4:	1009883a 	mov	r4,r2
 10035c8:	100cbe80 	call	100cbe8 <__fixdfsi>
 10035cc:	1009883a 	mov	r4,r2
 10035d0:	102b883a 	mov	r21,r2
 10035d4:	100cc680 	call	100cc68 <__floatsidf>
 10035d8:	800d883a 	mov	r6,r16
 10035dc:	880f883a 	mov	r7,r17
 10035e0:	1009883a 	mov	r4,r2
 10035e4:	180b883a 	mov	r5,r3
 10035e8:	100bbd40 	call	100bbd4 <__muldf3>
 10035ec:	100d883a 	mov	r6,r2
 10035f0:	180f883a 	mov	r7,r3
 10035f4:	9009883a 	mov	r4,r18
 10035f8:	980b883a 	mov	r5,r19
 10035fc:	100c2ec0 	call	100c2ec <__subdf3>
 1003600:	aa000c04 	addi	r8,r21,48
 1003604:	a2000005 	stb	r8,0(r20)
 1003608:	000d883a 	mov	r6,zero
 100360c:	01d00934 	movhi	r7,16420
 1003610:	1009883a 	mov	r4,r2
 1003614:	180b883a 	mov	r5,r3
 1003618:	a5c00044 	addi	r23,r20,1
 100361c:	b53fd91e 	bne	r22,r20,1003584 <__alt_mem_TCDM+0xff002584>
 1003620:	100d883a 	mov	r6,r2
 1003624:	180f883a 	mov	r7,r3
 1003628:	1009883a 	mov	r4,r2
 100362c:	180b883a 	mov	r5,r3
 1003630:	100a7e80 	call	100a7e8 <__adddf3>
 1003634:	100d883a 	mov	r6,r2
 1003638:	180f883a 	mov	r7,r3
 100363c:	8009883a 	mov	r4,r16
 1003640:	880b883a 	mov	r5,r17
 1003644:	1027883a 	mov	r19,r2
 1003648:	1825883a 	mov	r18,r3
 100364c:	100bae00 	call	100bae0 <__ledf2>
 1003650:	10000816 	blt	r2,zero,1003674 <_dtoa_r+0x948>
 1003654:	980d883a 	mov	r6,r19
 1003658:	900f883a 	mov	r7,r18
 100365c:	8009883a 	mov	r4,r16
 1003660:	880b883a 	mov	r5,r17
 1003664:	100b97c0 	call	100b97c <__eqdf2>
 1003668:	103f5a1e 	bne	r2,zero,10033d4 <__alt_mem_TCDM+0xff0023d4>
 100366c:	ad40004c 	andi	r21,r21,1
 1003670:	a83f5826 	beq	r21,zero,10033d4 <__alt_mem_TCDM+0xff0023d4>
 1003674:	bd3fffc3 	ldbu	r20,-1(r23)
 1003678:	b8bfffc4 	addi	r2,r23,-1
 100367c:	1007883a 	mov	r3,r2
 1003680:	01400e44 	movi	r5,57
 1003684:	d9800717 	ldw	r6,28(sp)
 1003688:	00000506 	br	10036a0 <_dtoa_r+0x974>
 100368c:	18ffffc4 	addi	r3,r3,-1
 1003690:	11824726 	beq	r2,r6,1003fb0 <_dtoa_r+0x1284>
 1003694:	1d000003 	ldbu	r20,0(r3)
 1003698:	102f883a 	mov	r23,r2
 100369c:	10bfffc4 	addi	r2,r2,-1
 10036a0:	a1003fcc 	andi	r4,r20,255
 10036a4:	2100201c 	xori	r4,r4,128
 10036a8:	213fe004 	addi	r4,r4,-128
 10036ac:	217ff726 	beq	r4,r5,100368c <__alt_mem_TCDM+0xff00268c>
 10036b0:	a2000044 	addi	r8,r20,1
 10036b4:	12000005 	stb	r8,0(r2)
 10036b8:	003f4606 	br	10033d4 <__alt_mem_TCDM+0xff0023d4>
 10036bc:	d9000b17 	ldw	r4,44(sp)
 10036c0:	2000c826 	beq	r4,zero,10039e4 <_dtoa_r+0xcb8>
 10036c4:	d9800317 	ldw	r6,12(sp)
 10036c8:	00c00044 	movi	r3,1
 10036cc:	1980f90e 	bge	r3,r6,1003ab4 <_dtoa_r+0xd88>
 10036d0:	d8800617 	ldw	r2,24(sp)
 10036d4:	d8c00a17 	ldw	r3,40(sp)
 10036d8:	157fffc4 	addi	r21,r2,-1
 10036dc:	1d41f316 	blt	r3,r21,1003eac <_dtoa_r+0x1180>
 10036e0:	1d6bc83a 	sub	r21,r3,r21
 10036e4:	d9c00617 	ldw	r7,24(sp)
 10036e8:	3802aa16 	blt	r7,zero,1004194 <_dtoa_r+0x1468>
 10036ec:	dd000817 	ldw	r20,32(sp)
 10036f0:	d8800617 	ldw	r2,24(sp)
 10036f4:	d8c00817 	ldw	r3,32(sp)
 10036f8:	01400044 	movi	r5,1
 10036fc:	e009883a 	mov	r4,fp
 1003700:	1887883a 	add	r3,r3,r2
 1003704:	d8c00815 	stw	r3,32(sp)
 1003708:	b0ad883a 	add	r22,r22,r2
 100370c:	10067d40 	call	10067d4 <__i2b>
 1003710:	1023883a 	mov	r17,r2
 1003714:	a0000826 	beq	r20,zero,1003738 <_dtoa_r+0xa0c>
 1003718:	0580070e 	bge	zero,r22,1003738 <_dtoa_r+0xa0c>
 100371c:	a005883a 	mov	r2,r20
 1003720:	b500b916 	blt	r22,r20,1003a08 <_dtoa_r+0xcdc>
 1003724:	d9000817 	ldw	r4,32(sp)
 1003728:	a0a9c83a 	sub	r20,r20,r2
 100372c:	b0adc83a 	sub	r22,r22,r2
 1003730:	2089c83a 	sub	r4,r4,r2
 1003734:	d9000815 	stw	r4,32(sp)
 1003738:	d9800a17 	ldw	r6,40(sp)
 100373c:	0181810e 	bge	zero,r6,1003d44 <_dtoa_r+0x1018>
 1003740:	d9c00b17 	ldw	r7,44(sp)
 1003744:	3800b326 	beq	r7,zero,1003a14 <_dtoa_r+0xce8>
 1003748:	a800b226 	beq	r21,zero,1003a14 <_dtoa_r+0xce8>
 100374c:	880b883a 	mov	r5,r17
 1003750:	a80d883a 	mov	r6,r21
 1003754:	e009883a 	mov	r4,fp
 1003758:	1006a080 	call	1006a08 <__pow5mult>
 100375c:	d9800917 	ldw	r6,36(sp)
 1003760:	100b883a 	mov	r5,r2
 1003764:	e009883a 	mov	r4,fp
 1003768:	1023883a 	mov	r17,r2
 100376c:	10068100 	call	1006810 <__multiply>
 1003770:	1021883a 	mov	r16,r2
 1003774:	d8800a17 	ldw	r2,40(sp)
 1003778:	d9400917 	ldw	r5,36(sp)
 100377c:	e009883a 	mov	r4,fp
 1003780:	1545c83a 	sub	r2,r2,r21
 1003784:	d8800a15 	stw	r2,40(sp)
 1003788:	10064700 	call	1006470 <_Bfree>
 100378c:	d8c00a17 	ldw	r3,40(sp)
 1003790:	18009f1e 	bne	r3,zero,1003a10 <_dtoa_r+0xce4>
 1003794:	05c00044 	movi	r23,1
 1003798:	e009883a 	mov	r4,fp
 100379c:	b80b883a 	mov	r5,r23
 10037a0:	10067d40 	call	10067d4 <__i2b>
 10037a4:	d9000d17 	ldw	r4,52(sp)
 10037a8:	102b883a 	mov	r21,r2
 10037ac:	2000ce26 	beq	r4,zero,1003ae8 <_dtoa_r+0xdbc>
 10037b0:	200d883a 	mov	r6,r4
 10037b4:	100b883a 	mov	r5,r2
 10037b8:	e009883a 	mov	r4,fp
 10037bc:	1006a080 	call	1006a08 <__pow5mult>
 10037c0:	d9800317 	ldw	r6,12(sp)
 10037c4:	102b883a 	mov	r21,r2
 10037c8:	b981810e 	bge	r23,r6,1003dd0 <_dtoa_r+0x10a4>
 10037cc:	0027883a 	mov	r19,zero
 10037d0:	a8800417 	ldw	r2,16(r21)
 10037d4:	05c00804 	movi	r23,32
 10037d8:	10800104 	addi	r2,r2,4
 10037dc:	1085883a 	add	r2,r2,r2
 10037e0:	1085883a 	add	r2,r2,r2
 10037e4:	a885883a 	add	r2,r21,r2
 10037e8:	11000017 	ldw	r4,0(r2)
 10037ec:	10066bc0 	call	10066bc <__hi0bits>
 10037f0:	b885c83a 	sub	r2,r23,r2
 10037f4:	1585883a 	add	r2,r2,r22
 10037f8:	108007cc 	andi	r2,r2,31
 10037fc:	1000b326 	beq	r2,zero,1003acc <_dtoa_r+0xda0>
 1003800:	00c00804 	movi	r3,32
 1003804:	1887c83a 	sub	r3,r3,r2
 1003808:	01000104 	movi	r4,4
 100380c:	20c2cd0e 	bge	r4,r3,1004344 <_dtoa_r+0x1618>
 1003810:	00c00704 	movi	r3,28
 1003814:	1885c83a 	sub	r2,r3,r2
 1003818:	d8c00817 	ldw	r3,32(sp)
 100381c:	a0a9883a 	add	r20,r20,r2
 1003820:	b0ad883a 	add	r22,r22,r2
 1003824:	1887883a 	add	r3,r3,r2
 1003828:	d8c00815 	stw	r3,32(sp)
 100382c:	d9800817 	ldw	r6,32(sp)
 1003830:	0180040e 	bge	zero,r6,1003844 <_dtoa_r+0xb18>
 1003834:	800b883a 	mov	r5,r16
 1003838:	e009883a 	mov	r4,fp
 100383c:	1006b480 	call	1006b48 <__lshift>
 1003840:	1021883a 	mov	r16,r2
 1003844:	0580050e 	bge	zero,r22,100385c <_dtoa_r+0xb30>
 1003848:	a80b883a 	mov	r5,r21
 100384c:	b00d883a 	mov	r6,r22
 1003850:	e009883a 	mov	r4,fp
 1003854:	1006b480 	call	1006b48 <__lshift>
 1003858:	102b883a 	mov	r21,r2
 100385c:	d9c00e17 	ldw	r7,56(sp)
 1003860:	3801211e 	bne	r7,zero,1003ce8 <_dtoa_r+0xfbc>
 1003864:	d9800617 	ldw	r6,24(sp)
 1003868:	0181380e 	bge	zero,r6,1003d4c <_dtoa_r+0x1020>
 100386c:	d8c00b17 	ldw	r3,44(sp)
 1003870:	1800ab1e 	bne	r3,zero,1003b20 <_dtoa_r+0xdf4>
 1003874:	dc800717 	ldw	r18,28(sp)
 1003878:	dcc00617 	ldw	r19,24(sp)
 100387c:	9029883a 	mov	r20,r18
 1003880:	00000206 	br	100388c <_dtoa_r+0xb60>
 1003884:	10064980 	call	1006498 <__multadd>
 1003888:	1021883a 	mov	r16,r2
 100388c:	a80b883a 	mov	r5,r21
 1003890:	8009883a 	mov	r4,r16
 1003894:	1002b2c0 	call	1002b2c <quorem>
 1003898:	10800c04 	addi	r2,r2,48
 100389c:	90800005 	stb	r2,0(r18)
 10038a0:	94800044 	addi	r18,r18,1
 10038a4:	9507c83a 	sub	r3,r18,r20
 10038a8:	000f883a 	mov	r7,zero
 10038ac:	01800284 	movi	r6,10
 10038b0:	800b883a 	mov	r5,r16
 10038b4:	e009883a 	mov	r4,fp
 10038b8:	1cfff216 	blt	r3,r19,1003884 <__alt_mem_TCDM+0xff002884>
 10038bc:	1011883a 	mov	r8,r2
 10038c0:	d8800617 	ldw	r2,24(sp)
 10038c4:	0082370e 	bge	zero,r2,10041a4 <_dtoa_r+0x1478>
 10038c8:	d9000717 	ldw	r4,28(sp)
 10038cc:	0025883a 	mov	r18,zero
 10038d0:	20af883a 	add	r23,r4,r2
 10038d4:	01800044 	movi	r6,1
 10038d8:	800b883a 	mov	r5,r16
 10038dc:	e009883a 	mov	r4,fp
 10038e0:	da001715 	stw	r8,92(sp)
 10038e4:	1006b480 	call	1006b48 <__lshift>
 10038e8:	a80b883a 	mov	r5,r21
 10038ec:	1009883a 	mov	r4,r2
 10038f0:	d8800915 	stw	r2,36(sp)
 10038f4:	1006c900 	call	1006c90 <__mcmp>
 10038f8:	da001717 	ldw	r8,92(sp)
 10038fc:	0081800e 	bge	zero,r2,1003f00 <_dtoa_r+0x11d4>
 1003900:	b93fffc3 	ldbu	r4,-1(r23)
 1003904:	b8bfffc4 	addi	r2,r23,-1
 1003908:	1007883a 	mov	r3,r2
 100390c:	01800e44 	movi	r6,57
 1003910:	d9c00717 	ldw	r7,28(sp)
 1003914:	00000506 	br	100392c <_dtoa_r+0xc00>
 1003918:	18ffffc4 	addi	r3,r3,-1
 100391c:	11c12326 	beq	r2,r7,1003dac <_dtoa_r+0x1080>
 1003920:	19000003 	ldbu	r4,0(r3)
 1003924:	102f883a 	mov	r23,r2
 1003928:	10bfffc4 	addi	r2,r2,-1
 100392c:	21403fcc 	andi	r5,r4,255
 1003930:	2940201c 	xori	r5,r5,128
 1003934:	297fe004 	addi	r5,r5,-128
 1003938:	29bff726 	beq	r5,r6,1003918 <__alt_mem_TCDM+0xff002918>
 100393c:	21000044 	addi	r4,r4,1
 1003940:	11000005 	stb	r4,0(r2)
 1003944:	a80b883a 	mov	r5,r21
 1003948:	e009883a 	mov	r4,fp
 100394c:	10064700 	call	1006470 <_Bfree>
 1003950:	883ea026 	beq	r17,zero,10033d4 <__alt_mem_TCDM+0xff0023d4>
 1003954:	90000426 	beq	r18,zero,1003968 <_dtoa_r+0xc3c>
 1003958:	94400326 	beq	r18,r17,1003968 <_dtoa_r+0xc3c>
 100395c:	900b883a 	mov	r5,r18
 1003960:	e009883a 	mov	r4,fp
 1003964:	10064700 	call	1006470 <_Bfree>
 1003968:	880b883a 	mov	r5,r17
 100396c:	e009883a 	mov	r4,fp
 1003970:	10064700 	call	1006470 <_Bfree>
 1003974:	003e9706 	br	10033d4 <__alt_mem_TCDM+0xff0023d4>
 1003978:	01800044 	movi	r6,1
 100397c:	d9800e15 	stw	r6,56(sp)
 1003980:	003d9606 	br	1002fdc <__alt_mem_TCDM+0xff001fdc>
 1003984:	d8800817 	ldw	r2,32(sp)
 1003988:	d8c00517 	ldw	r3,20(sp)
 100398c:	d8000d15 	stw	zero,52(sp)
 1003990:	10c5c83a 	sub	r2,r2,r3
 1003994:	00c9c83a 	sub	r4,zero,r3
 1003998:	d8800815 	stw	r2,32(sp)
 100399c:	d9000a15 	stw	r4,40(sp)
 10039a0:	003d9706 	br	1003000 <__alt_mem_TCDM+0xff002000>
 10039a4:	05adc83a 	sub	r22,zero,r22
 10039a8:	dd800815 	stw	r22,32(sp)
 10039ac:	002d883a 	mov	r22,zero
 10039b0:	003d8e06 	br	1002fec <__alt_mem_TCDM+0xff001fec>
 10039b4:	d9000517 	ldw	r4,20(sp)
 10039b8:	100cc680 	call	100cc68 <__floatsidf>
 10039bc:	100d883a 	mov	r6,r2
 10039c0:	180f883a 	mov	r7,r3
 10039c4:	a009883a 	mov	r4,r20
 10039c8:	880b883a 	mov	r5,r17
 10039cc:	100b97c0 	call	100b97c <__eqdf2>
 10039d0:	103d7126 	beq	r2,zero,1002f98 <__alt_mem_TCDM+0xff001f98>
 10039d4:	d9c00517 	ldw	r7,20(sp)
 10039d8:	39ffffc4 	addi	r7,r7,-1
 10039dc:	d9c00515 	stw	r7,20(sp)
 10039e0:	003d6d06 	br	1002f98 <__alt_mem_TCDM+0xff001f98>
 10039e4:	dd400a17 	ldw	r21,40(sp)
 10039e8:	dd000817 	ldw	r20,32(sp)
 10039ec:	0023883a 	mov	r17,zero
 10039f0:	003f4806 	br	1003714 <__alt_mem_TCDM+0xff002714>
 10039f4:	10e3c83a 	sub	r17,r2,r3
 10039f8:	9448983a 	sll	r4,r18,r17
 10039fc:	003d3206 	br	1002ec8 <__alt_mem_TCDM+0xff001ec8>
 1003a00:	d8000e15 	stw	zero,56(sp)
 1003a04:	003d7506 	br	1002fdc <__alt_mem_TCDM+0xff001fdc>
 1003a08:	b005883a 	mov	r2,r22
 1003a0c:	003f4506 	br	1003724 <__alt_mem_TCDM+0xff002724>
 1003a10:	dc000915 	stw	r16,36(sp)
 1003a14:	d9800a17 	ldw	r6,40(sp)
 1003a18:	d9400917 	ldw	r5,36(sp)
 1003a1c:	e009883a 	mov	r4,fp
 1003a20:	1006a080 	call	1006a08 <__pow5mult>
 1003a24:	1021883a 	mov	r16,r2
 1003a28:	003f5a06 	br	1003794 <__alt_mem_TCDM+0xff002794>
 1003a2c:	01c00044 	movi	r7,1
 1003a30:	d9c00b15 	stw	r7,44(sp)
 1003a34:	d8802217 	ldw	r2,136(sp)
 1003a38:	0081280e 	bge	zero,r2,1003edc <_dtoa_r+0x11b0>
 1003a3c:	100d883a 	mov	r6,r2
 1003a40:	1021883a 	mov	r16,r2
 1003a44:	d8800c15 	stw	r2,48(sp)
 1003a48:	d8800615 	stw	r2,24(sp)
 1003a4c:	003d8806 	br	1003070 <__alt_mem_TCDM+0xff002070>
 1003a50:	d8800617 	ldw	r2,24(sp)
 1003a54:	00be9b16 	blt	zero,r2,10034c4 <__alt_mem_TCDM+0xff0024c4>
 1003a58:	10010f1e 	bne	r2,zero,1003e98 <_dtoa_r+0x116c>
 1003a5c:	880b883a 	mov	r5,r17
 1003a60:	000d883a 	mov	r6,zero
 1003a64:	01d00534 	movhi	r7,16404
 1003a68:	8009883a 	mov	r4,r16
 1003a6c:	100bbd40 	call	100bbd4 <__muldf3>
 1003a70:	900d883a 	mov	r6,r18
 1003a74:	980f883a 	mov	r7,r19
 1003a78:	1009883a 	mov	r4,r2
 1003a7c:	180b883a 	mov	r5,r3
 1003a80:	100ba040 	call	100ba04 <__gedf2>
 1003a84:	002b883a 	mov	r21,zero
 1003a88:	0023883a 	mov	r17,zero
 1003a8c:	1000bf16 	blt	r2,zero,1003d8c <_dtoa_r+0x1060>
 1003a90:	d9802217 	ldw	r6,136(sp)
 1003a94:	ddc00717 	ldw	r23,28(sp)
 1003a98:	018c303a 	nor	r6,zero,r6
 1003a9c:	d9800515 	stw	r6,20(sp)
 1003aa0:	a80b883a 	mov	r5,r21
 1003aa4:	e009883a 	mov	r4,fp
 1003aa8:	10064700 	call	1006470 <_Bfree>
 1003aac:	883e4926 	beq	r17,zero,10033d4 <__alt_mem_TCDM+0xff0023d4>
 1003ab0:	003fad06 	br	1003968 <__alt_mem_TCDM+0xff002968>
 1003ab4:	d9c01117 	ldw	r7,68(sp)
 1003ab8:	3801bc26 	beq	r7,zero,10041ac <_dtoa_r+0x1480>
 1003abc:	10810cc4 	addi	r2,r2,1075
 1003ac0:	dd400a17 	ldw	r21,40(sp)
 1003ac4:	dd000817 	ldw	r20,32(sp)
 1003ac8:	003f0a06 	br	10036f4 <__alt_mem_TCDM+0xff0026f4>
 1003acc:	00800704 	movi	r2,28
 1003ad0:	d9000817 	ldw	r4,32(sp)
 1003ad4:	a0a9883a 	add	r20,r20,r2
 1003ad8:	b0ad883a 	add	r22,r22,r2
 1003adc:	2089883a 	add	r4,r4,r2
 1003ae0:	d9000815 	stw	r4,32(sp)
 1003ae4:	003f5106 	br	100382c <__alt_mem_TCDM+0xff00282c>
 1003ae8:	d8c00317 	ldw	r3,12(sp)
 1003aec:	b8c1fc0e 	bge	r23,r3,10042e0 <_dtoa_r+0x15b4>
 1003af0:	0027883a 	mov	r19,zero
 1003af4:	b805883a 	mov	r2,r23
 1003af8:	003f3e06 	br	10037f4 <__alt_mem_TCDM+0xff0027f4>
 1003afc:	880b883a 	mov	r5,r17
 1003b00:	e009883a 	mov	r4,fp
 1003b04:	000f883a 	mov	r7,zero
 1003b08:	01800284 	movi	r6,10
 1003b0c:	10064980 	call	1006498 <__multadd>
 1003b10:	d9000c17 	ldw	r4,48(sp)
 1003b14:	1023883a 	mov	r17,r2
 1003b18:	0102040e 	bge	zero,r4,100432c <_dtoa_r+0x1600>
 1003b1c:	d9000615 	stw	r4,24(sp)
 1003b20:	0500050e 	bge	zero,r20,1003b38 <_dtoa_r+0xe0c>
 1003b24:	880b883a 	mov	r5,r17
 1003b28:	a00d883a 	mov	r6,r20
 1003b2c:	e009883a 	mov	r4,fp
 1003b30:	1006b480 	call	1006b48 <__lshift>
 1003b34:	1023883a 	mov	r17,r2
 1003b38:	9801241e 	bne	r19,zero,1003fcc <_dtoa_r+0x12a0>
 1003b3c:	8829883a 	mov	r20,r17
 1003b40:	d9000617 	ldw	r4,24(sp)
 1003b44:	dcc00717 	ldw	r19,28(sp)
 1003b48:	9480004c 	andi	r18,r18,1
 1003b4c:	20bfffc4 	addi	r2,r4,-1
 1003b50:	9885883a 	add	r2,r19,r2
 1003b54:	d8800415 	stw	r2,16(sp)
 1003b58:	dc800615 	stw	r18,24(sp)
 1003b5c:	a80b883a 	mov	r5,r21
 1003b60:	8009883a 	mov	r4,r16
 1003b64:	1002b2c0 	call	1002b2c <quorem>
 1003b68:	880b883a 	mov	r5,r17
 1003b6c:	8009883a 	mov	r4,r16
 1003b70:	102f883a 	mov	r23,r2
 1003b74:	1006c900 	call	1006c90 <__mcmp>
 1003b78:	a80b883a 	mov	r5,r21
 1003b7c:	a00d883a 	mov	r6,r20
 1003b80:	e009883a 	mov	r4,fp
 1003b84:	102d883a 	mov	r22,r2
 1003b88:	1006cf00 	call	1006cf0 <__mdiff>
 1003b8c:	1007883a 	mov	r3,r2
 1003b90:	10800317 	ldw	r2,12(r2)
 1003b94:	bc800c04 	addi	r18,r23,48
 1003b98:	180b883a 	mov	r5,r3
 1003b9c:	10004e1e 	bne	r2,zero,1003cd8 <_dtoa_r+0xfac>
 1003ba0:	8009883a 	mov	r4,r16
 1003ba4:	d8c01615 	stw	r3,88(sp)
 1003ba8:	1006c900 	call	1006c90 <__mcmp>
 1003bac:	d8c01617 	ldw	r3,88(sp)
 1003bb0:	e009883a 	mov	r4,fp
 1003bb4:	d8801615 	stw	r2,88(sp)
 1003bb8:	180b883a 	mov	r5,r3
 1003bbc:	10064700 	call	1006470 <_Bfree>
 1003bc0:	d8801617 	ldw	r2,88(sp)
 1003bc4:	1000041e 	bne	r2,zero,1003bd8 <_dtoa_r+0xeac>
 1003bc8:	d9800317 	ldw	r6,12(sp)
 1003bcc:	3000021e 	bne	r6,zero,1003bd8 <_dtoa_r+0xeac>
 1003bd0:	d8c00617 	ldw	r3,24(sp)
 1003bd4:	18003726 	beq	r3,zero,1003cb4 <_dtoa_r+0xf88>
 1003bd8:	b0002016 	blt	r22,zero,1003c5c <_dtoa_r+0xf30>
 1003bdc:	b000041e 	bne	r22,zero,1003bf0 <_dtoa_r+0xec4>
 1003be0:	d9000317 	ldw	r4,12(sp)
 1003be4:	2000021e 	bne	r4,zero,1003bf0 <_dtoa_r+0xec4>
 1003be8:	d8c00617 	ldw	r3,24(sp)
 1003bec:	18001b26 	beq	r3,zero,1003c5c <_dtoa_r+0xf30>
 1003bf0:	00810716 	blt	zero,r2,1004010 <_dtoa_r+0x12e4>
 1003bf4:	d8c00417 	ldw	r3,16(sp)
 1003bf8:	9d800044 	addi	r22,r19,1
 1003bfc:	9c800005 	stb	r18,0(r19)
 1003c00:	b02f883a 	mov	r23,r22
 1003c04:	98c10626 	beq	r19,r3,1004020 <_dtoa_r+0x12f4>
 1003c08:	800b883a 	mov	r5,r16
 1003c0c:	000f883a 	mov	r7,zero
 1003c10:	01800284 	movi	r6,10
 1003c14:	e009883a 	mov	r4,fp
 1003c18:	10064980 	call	1006498 <__multadd>
 1003c1c:	1021883a 	mov	r16,r2
 1003c20:	000f883a 	mov	r7,zero
 1003c24:	01800284 	movi	r6,10
 1003c28:	880b883a 	mov	r5,r17
 1003c2c:	e009883a 	mov	r4,fp
 1003c30:	8d002526 	beq	r17,r20,1003cc8 <_dtoa_r+0xf9c>
 1003c34:	10064980 	call	1006498 <__multadd>
 1003c38:	a00b883a 	mov	r5,r20
 1003c3c:	000f883a 	mov	r7,zero
 1003c40:	01800284 	movi	r6,10
 1003c44:	e009883a 	mov	r4,fp
 1003c48:	1023883a 	mov	r17,r2
 1003c4c:	10064980 	call	1006498 <__multadd>
 1003c50:	1029883a 	mov	r20,r2
 1003c54:	b027883a 	mov	r19,r22
 1003c58:	003fc006 	br	1003b5c <__alt_mem_TCDM+0xff002b5c>
 1003c5c:	9011883a 	mov	r8,r18
 1003c60:	00800e0e 	bge	zero,r2,1003c9c <_dtoa_r+0xf70>
 1003c64:	800b883a 	mov	r5,r16
 1003c68:	01800044 	movi	r6,1
 1003c6c:	e009883a 	mov	r4,fp
 1003c70:	da001715 	stw	r8,92(sp)
 1003c74:	1006b480 	call	1006b48 <__lshift>
 1003c78:	a80b883a 	mov	r5,r21
 1003c7c:	1009883a 	mov	r4,r2
 1003c80:	1021883a 	mov	r16,r2
 1003c84:	1006c900 	call	1006c90 <__mcmp>
 1003c88:	da001717 	ldw	r8,92(sp)
 1003c8c:	0081960e 	bge	zero,r2,10042e8 <_dtoa_r+0x15bc>
 1003c90:	00800e44 	movi	r2,57
 1003c94:	40817026 	beq	r8,r2,1004258 <_dtoa_r+0x152c>
 1003c98:	ba000c44 	addi	r8,r23,49
 1003c9c:	8825883a 	mov	r18,r17
 1003ca0:	9dc00044 	addi	r23,r19,1
 1003ca4:	9a000005 	stb	r8,0(r19)
 1003ca8:	a023883a 	mov	r17,r20
 1003cac:	dc000915 	stw	r16,36(sp)
 1003cb0:	003f2406 	br	1003944 <__alt_mem_TCDM+0xff002944>
 1003cb4:	00800e44 	movi	r2,57
 1003cb8:	9011883a 	mov	r8,r18
 1003cbc:	90816626 	beq	r18,r2,1004258 <_dtoa_r+0x152c>
 1003cc0:	05bff516 	blt	zero,r22,1003c98 <__alt_mem_TCDM+0xff002c98>
 1003cc4:	003ff506 	br	1003c9c <__alt_mem_TCDM+0xff002c9c>
 1003cc8:	10064980 	call	1006498 <__multadd>
 1003ccc:	1023883a 	mov	r17,r2
 1003cd0:	1029883a 	mov	r20,r2
 1003cd4:	003fdf06 	br	1003c54 <__alt_mem_TCDM+0xff002c54>
 1003cd8:	e009883a 	mov	r4,fp
 1003cdc:	10064700 	call	1006470 <_Bfree>
 1003ce0:	00800044 	movi	r2,1
 1003ce4:	003fbc06 	br	1003bd8 <__alt_mem_TCDM+0xff002bd8>
 1003ce8:	a80b883a 	mov	r5,r21
 1003cec:	8009883a 	mov	r4,r16
 1003cf0:	1006c900 	call	1006c90 <__mcmp>
 1003cf4:	103edb0e 	bge	r2,zero,1003864 <__alt_mem_TCDM+0xff002864>
 1003cf8:	800b883a 	mov	r5,r16
 1003cfc:	000f883a 	mov	r7,zero
 1003d00:	01800284 	movi	r6,10
 1003d04:	e009883a 	mov	r4,fp
 1003d08:	10064980 	call	1006498 <__multadd>
 1003d0c:	1021883a 	mov	r16,r2
 1003d10:	d8800517 	ldw	r2,20(sp)
 1003d14:	d8c00b17 	ldw	r3,44(sp)
 1003d18:	10bfffc4 	addi	r2,r2,-1
 1003d1c:	d8800515 	stw	r2,20(sp)
 1003d20:	183f761e 	bne	r3,zero,1003afc <__alt_mem_TCDM+0xff002afc>
 1003d24:	d9000c17 	ldw	r4,48(sp)
 1003d28:	0101730e 	bge	zero,r4,10042f8 <_dtoa_r+0x15cc>
 1003d2c:	d9000615 	stw	r4,24(sp)
 1003d30:	003ed006 	br	1003874 <__alt_mem_TCDM+0xff002874>
 1003d34:	00800084 	movi	r2,2
 1003d38:	3081861e 	bne	r6,r2,1004354 <_dtoa_r+0x1628>
 1003d3c:	d8000b15 	stw	zero,44(sp)
 1003d40:	003f3c06 	br	1003a34 <__alt_mem_TCDM+0xff002a34>
 1003d44:	dc000917 	ldw	r16,36(sp)
 1003d48:	003e9206 	br	1003794 <__alt_mem_TCDM+0xff002794>
 1003d4c:	d9c00317 	ldw	r7,12(sp)
 1003d50:	00800084 	movi	r2,2
 1003d54:	11fec50e 	bge	r2,r7,100386c <__alt_mem_TCDM+0xff00286c>
 1003d58:	d9000617 	ldw	r4,24(sp)
 1003d5c:	20013c1e 	bne	r4,zero,1004250 <_dtoa_r+0x1524>
 1003d60:	a80b883a 	mov	r5,r21
 1003d64:	000f883a 	mov	r7,zero
 1003d68:	01800144 	movi	r6,5
 1003d6c:	e009883a 	mov	r4,fp
 1003d70:	10064980 	call	1006498 <__multadd>
 1003d74:	100b883a 	mov	r5,r2
 1003d78:	8009883a 	mov	r4,r16
 1003d7c:	102b883a 	mov	r21,r2
 1003d80:	1006c900 	call	1006c90 <__mcmp>
 1003d84:	dc000915 	stw	r16,36(sp)
 1003d88:	00bf410e 	bge	zero,r2,1003a90 <__alt_mem_TCDM+0xff002a90>
 1003d8c:	d9c00717 	ldw	r7,28(sp)
 1003d90:	00800c44 	movi	r2,49
 1003d94:	38800005 	stb	r2,0(r7)
 1003d98:	d8800517 	ldw	r2,20(sp)
 1003d9c:	3dc00044 	addi	r23,r7,1
 1003da0:	10800044 	addi	r2,r2,1
 1003da4:	d8800515 	stw	r2,20(sp)
 1003da8:	003f3d06 	br	1003aa0 <__alt_mem_TCDM+0xff002aa0>
 1003dac:	d9800517 	ldw	r6,20(sp)
 1003db0:	d9c00717 	ldw	r7,28(sp)
 1003db4:	00800c44 	movi	r2,49
 1003db8:	31800044 	addi	r6,r6,1
 1003dbc:	d9800515 	stw	r6,20(sp)
 1003dc0:	38800005 	stb	r2,0(r7)
 1003dc4:	003edf06 	br	1003944 <__alt_mem_TCDM+0xff002944>
 1003dc8:	d8000b15 	stw	zero,44(sp)
 1003dcc:	003c9f06 	br	100304c <__alt_mem_TCDM+0xff00204c>
 1003dd0:	903e7e1e 	bne	r18,zero,10037cc <__alt_mem_TCDM+0xff0027cc>
 1003dd4:	00800434 	movhi	r2,16
 1003dd8:	10bfffc4 	addi	r2,r2,-1
 1003ddc:	9884703a 	and	r2,r19,r2
 1003de0:	1000ea1e 	bne	r2,zero,100418c <_dtoa_r+0x1460>
 1003de4:	9cdffc2c 	andhi	r19,r19,32752
 1003de8:	9800e826 	beq	r19,zero,100418c <_dtoa_r+0x1460>
 1003dec:	d9c00817 	ldw	r7,32(sp)
 1003df0:	b5800044 	addi	r22,r22,1
 1003df4:	04c00044 	movi	r19,1
 1003df8:	39c00044 	addi	r7,r7,1
 1003dfc:	d9c00815 	stw	r7,32(sp)
 1003e00:	d8800d17 	ldw	r2,52(sp)
 1003e04:	103e721e 	bne	r2,zero,10037d0 <__alt_mem_TCDM+0xff0027d0>
 1003e08:	00800044 	movi	r2,1
 1003e0c:	003e7906 	br	10037f4 <__alt_mem_TCDM+0xff0027f4>
 1003e10:	8009883a 	mov	r4,r16
 1003e14:	100cc680 	call	100cc68 <__floatsidf>
 1003e18:	d9800f17 	ldw	r6,60(sp)
 1003e1c:	d9c01017 	ldw	r7,64(sp)
 1003e20:	1009883a 	mov	r4,r2
 1003e24:	180b883a 	mov	r5,r3
 1003e28:	100bbd40 	call	100bbd4 <__muldf3>
 1003e2c:	000d883a 	mov	r6,zero
 1003e30:	01d00734 	movhi	r7,16412
 1003e34:	1009883a 	mov	r4,r2
 1003e38:	180b883a 	mov	r5,r3
 1003e3c:	100a7e80 	call	100a7e8 <__adddf3>
 1003e40:	047f3034 	movhi	r17,64704
 1003e44:	1021883a 	mov	r16,r2
 1003e48:	1c63883a 	add	r17,r3,r17
 1003e4c:	d9000f17 	ldw	r4,60(sp)
 1003e50:	d9401017 	ldw	r5,64(sp)
 1003e54:	000d883a 	mov	r6,zero
 1003e58:	01d00534 	movhi	r7,16404
 1003e5c:	100c2ec0 	call	100c2ec <__subdf3>
 1003e60:	800d883a 	mov	r6,r16
 1003e64:	880f883a 	mov	r7,r17
 1003e68:	1009883a 	mov	r4,r2
 1003e6c:	180b883a 	mov	r5,r3
 1003e70:	102b883a 	mov	r21,r2
 1003e74:	1829883a 	mov	r20,r3
 1003e78:	100ba040 	call	100ba04 <__gedf2>
 1003e7c:	00806c16 	blt	zero,r2,1004030 <_dtoa_r+0x1304>
 1003e80:	89e0003c 	xorhi	r7,r17,32768
 1003e84:	800d883a 	mov	r6,r16
 1003e88:	a809883a 	mov	r4,r21
 1003e8c:	a00b883a 	mov	r5,r20
 1003e90:	100bae00 	call	100bae0 <__ledf2>
 1003e94:	103d7e0e 	bge	r2,zero,1003490 <__alt_mem_TCDM+0xff002490>
 1003e98:	002b883a 	mov	r21,zero
 1003e9c:	0023883a 	mov	r17,zero
 1003ea0:	003efb06 	br	1003a90 <__alt_mem_TCDM+0xff002a90>
 1003ea4:	d8800717 	ldw	r2,28(sp)
 1003ea8:	003bd006 	br	1002dec <__alt_mem_TCDM+0xff001dec>
 1003eac:	d9000a17 	ldw	r4,40(sp)
 1003eb0:	d9800d17 	ldw	r6,52(sp)
 1003eb4:	dd400a15 	stw	r21,40(sp)
 1003eb8:	a905c83a 	sub	r2,r21,r4
 1003ebc:	308d883a 	add	r6,r6,r2
 1003ec0:	d9800d15 	stw	r6,52(sp)
 1003ec4:	002b883a 	mov	r21,zero
 1003ec8:	003e0606 	br	10036e4 <__alt_mem_TCDM+0xff0026e4>
 1003ecc:	9023883a 	mov	r17,r18
 1003ed0:	9829883a 	mov	r20,r19
 1003ed4:	04000084 	movi	r16,2
 1003ed8:	003c9206 	br	1003124 <__alt_mem_TCDM+0xff002124>
 1003edc:	04000044 	movi	r16,1
 1003ee0:	dc000c15 	stw	r16,48(sp)
 1003ee4:	dc000615 	stw	r16,24(sp)
 1003ee8:	dc002215 	stw	r16,136(sp)
 1003eec:	e0001115 	stw	zero,68(fp)
 1003ef0:	000b883a 	mov	r5,zero
 1003ef4:	003c6906 	br	100309c <__alt_mem_TCDM+0xff00209c>
 1003ef8:	3021883a 	mov	r16,r6
 1003efc:	003ffb06 	br	1003eec <__alt_mem_TCDM+0xff002eec>
 1003f00:	1000021e 	bne	r2,zero,1003f0c <_dtoa_r+0x11e0>
 1003f04:	4200004c 	andi	r8,r8,1
 1003f08:	403e7d1e 	bne	r8,zero,1003900 <__alt_mem_TCDM+0xff002900>
 1003f0c:	01000c04 	movi	r4,48
 1003f10:	00000106 	br	1003f18 <_dtoa_r+0x11ec>
 1003f14:	102f883a 	mov	r23,r2
 1003f18:	b8bfffc4 	addi	r2,r23,-1
 1003f1c:	10c00007 	ldb	r3,0(r2)
 1003f20:	193ffc26 	beq	r3,r4,1003f14 <__alt_mem_TCDM+0xff002f14>
 1003f24:	003e8706 	br	1003944 <__alt_mem_TCDM+0xff002944>
 1003f28:	d8800517 	ldw	r2,20(sp)
 1003f2c:	00a3c83a 	sub	r17,zero,r2
 1003f30:	8800a426 	beq	r17,zero,10041c4 <_dtoa_r+0x1498>
 1003f34:	888003cc 	andi	r2,r17,15
 1003f38:	100490fa 	slli	r2,r2,3
 1003f3c:	00c04074 	movhi	r3,257
 1003f40:	18ff8d04 	addi	r3,r3,-460
 1003f44:	1885883a 	add	r2,r3,r2
 1003f48:	11800017 	ldw	r6,0(r2)
 1003f4c:	11c00117 	ldw	r7,4(r2)
 1003f50:	9009883a 	mov	r4,r18
 1003f54:	980b883a 	mov	r5,r19
 1003f58:	8823d13a 	srai	r17,r17,4
 1003f5c:	100bbd40 	call	100bbd4 <__muldf3>
 1003f60:	d8800f15 	stw	r2,60(sp)
 1003f64:	d8c01015 	stw	r3,64(sp)
 1003f68:	8800e826 	beq	r17,zero,100430c <_dtoa_r+0x15e0>
 1003f6c:	05004074 	movhi	r20,257
 1003f70:	a53f8304 	addi	r20,r20,-500
 1003f74:	04000084 	movi	r16,2
 1003f78:	8980004c 	andi	r6,r17,1
 1003f7c:	1009883a 	mov	r4,r2
 1003f80:	8823d07a 	srai	r17,r17,1
 1003f84:	180b883a 	mov	r5,r3
 1003f88:	30000426 	beq	r6,zero,1003f9c <_dtoa_r+0x1270>
 1003f8c:	a1800017 	ldw	r6,0(r20)
 1003f90:	a1c00117 	ldw	r7,4(r20)
 1003f94:	84000044 	addi	r16,r16,1
 1003f98:	100bbd40 	call	100bbd4 <__muldf3>
 1003f9c:	a5000204 	addi	r20,r20,8
 1003fa0:	883ff51e 	bne	r17,zero,1003f78 <__alt_mem_TCDM+0xff002f78>
 1003fa4:	d8800f15 	stw	r2,60(sp)
 1003fa8:	d8c01015 	stw	r3,64(sp)
 1003fac:	003c7606 	br	1003188 <__alt_mem_TCDM+0xff002188>
 1003fb0:	00c00c04 	movi	r3,48
 1003fb4:	10c00005 	stb	r3,0(r2)
 1003fb8:	d8c00517 	ldw	r3,20(sp)
 1003fbc:	bd3fffc3 	ldbu	r20,-1(r23)
 1003fc0:	18c00044 	addi	r3,r3,1
 1003fc4:	d8c00515 	stw	r3,20(sp)
 1003fc8:	003db906 	br	10036b0 <__alt_mem_TCDM+0xff0026b0>
 1003fcc:	89400117 	ldw	r5,4(r17)
 1003fd0:	e009883a 	mov	r4,fp
 1003fd4:	10063c80 	call	10063c8 <_Balloc>
 1003fd8:	89800417 	ldw	r6,16(r17)
 1003fdc:	89400304 	addi	r5,r17,12
 1003fe0:	11000304 	addi	r4,r2,12
 1003fe4:	31800084 	addi	r6,r6,2
 1003fe8:	318d883a 	add	r6,r6,r6
 1003fec:	318d883a 	add	r6,r6,r6
 1003ff0:	1027883a 	mov	r19,r2
 1003ff4:	1005ffc0 	call	1005ffc <memcpy>
 1003ff8:	01800044 	movi	r6,1
 1003ffc:	980b883a 	mov	r5,r19
 1004000:	e009883a 	mov	r4,fp
 1004004:	1006b480 	call	1006b48 <__lshift>
 1004008:	1029883a 	mov	r20,r2
 100400c:	003ecc06 	br	1003b40 <__alt_mem_TCDM+0xff002b40>
 1004010:	00800e44 	movi	r2,57
 1004014:	90809026 	beq	r18,r2,1004258 <_dtoa_r+0x152c>
 1004018:	92000044 	addi	r8,r18,1
 100401c:	003f1f06 	br	1003c9c <__alt_mem_TCDM+0xff002c9c>
 1004020:	9011883a 	mov	r8,r18
 1004024:	8825883a 	mov	r18,r17
 1004028:	a023883a 	mov	r17,r20
 100402c:	003e2906 	br	10038d4 <__alt_mem_TCDM+0xff0028d4>
 1004030:	002b883a 	mov	r21,zero
 1004034:	0023883a 	mov	r17,zero
 1004038:	003f5406 	br	1003d8c <__alt_mem_TCDM+0xff002d8c>
 100403c:	61bfffc4 	addi	r6,r12,-1
 1004040:	300490fa 	slli	r2,r6,3
 1004044:	00c04074 	movhi	r3,257
 1004048:	18ff8d04 	addi	r3,r3,-460
 100404c:	1885883a 	add	r2,r3,r2
 1004050:	11000017 	ldw	r4,0(r2)
 1004054:	11400117 	ldw	r5,4(r2)
 1004058:	d8800717 	ldw	r2,28(sp)
 100405c:	880f883a 	mov	r7,r17
 1004060:	d9801215 	stw	r6,72(sp)
 1004064:	800d883a 	mov	r6,r16
 1004068:	db001615 	stw	r12,88(sp)
 100406c:	15c00044 	addi	r23,r2,1
 1004070:	100bbd40 	call	100bbd4 <__muldf3>
 1004074:	d9401017 	ldw	r5,64(sp)
 1004078:	d9000f17 	ldw	r4,60(sp)
 100407c:	d8c01515 	stw	r3,84(sp)
 1004080:	d8801415 	stw	r2,80(sp)
 1004084:	100cbe80 	call	100cbe8 <__fixdfsi>
 1004088:	1009883a 	mov	r4,r2
 100408c:	1021883a 	mov	r16,r2
 1004090:	100cc680 	call	100cc68 <__floatsidf>
 1004094:	d9000f17 	ldw	r4,60(sp)
 1004098:	d9401017 	ldw	r5,64(sp)
 100409c:	100d883a 	mov	r6,r2
 10040a0:	180f883a 	mov	r7,r3
 10040a4:	100c2ec0 	call	100c2ec <__subdf3>
 10040a8:	1829883a 	mov	r20,r3
 10040ac:	d8c00717 	ldw	r3,28(sp)
 10040b0:	84000c04 	addi	r16,r16,48
 10040b4:	1023883a 	mov	r17,r2
 10040b8:	1c000005 	stb	r16,0(r3)
 10040bc:	db001617 	ldw	r12,88(sp)
 10040c0:	00800044 	movi	r2,1
 10040c4:	60802226 	beq	r12,r2,1004150 <_dtoa_r+0x1424>
 10040c8:	d9c00717 	ldw	r7,28(sp)
 10040cc:	8805883a 	mov	r2,r17
 10040d0:	b82b883a 	mov	r21,r23
 10040d4:	3b19883a 	add	r12,r7,r12
 10040d8:	6023883a 	mov	r17,r12
 10040dc:	a007883a 	mov	r3,r20
 10040e0:	dc800f15 	stw	r18,60(sp)
 10040e4:	000d883a 	mov	r6,zero
 10040e8:	01d00934 	movhi	r7,16420
 10040ec:	1009883a 	mov	r4,r2
 10040f0:	180b883a 	mov	r5,r3
 10040f4:	100bbd40 	call	100bbd4 <__muldf3>
 10040f8:	180b883a 	mov	r5,r3
 10040fc:	1009883a 	mov	r4,r2
 1004100:	1829883a 	mov	r20,r3
 1004104:	1025883a 	mov	r18,r2
 1004108:	100cbe80 	call	100cbe8 <__fixdfsi>
 100410c:	1009883a 	mov	r4,r2
 1004110:	1021883a 	mov	r16,r2
 1004114:	100cc680 	call	100cc68 <__floatsidf>
 1004118:	100d883a 	mov	r6,r2
 100411c:	180f883a 	mov	r7,r3
 1004120:	9009883a 	mov	r4,r18
 1004124:	a00b883a 	mov	r5,r20
 1004128:	84000c04 	addi	r16,r16,48
 100412c:	100c2ec0 	call	100c2ec <__subdf3>
 1004130:	ad400044 	addi	r21,r21,1
 1004134:	ac3fffc5 	stb	r16,-1(r21)
 1004138:	ac7fea1e 	bne	r21,r17,10040e4 <__alt_mem_TCDM+0xff0030e4>
 100413c:	1023883a 	mov	r17,r2
 1004140:	d8801217 	ldw	r2,72(sp)
 1004144:	dc800f17 	ldw	r18,60(sp)
 1004148:	1829883a 	mov	r20,r3
 100414c:	b8af883a 	add	r23,r23,r2
 1004150:	d9001417 	ldw	r4,80(sp)
 1004154:	d9401517 	ldw	r5,84(sp)
 1004158:	000d883a 	mov	r6,zero
 100415c:	01cff834 	movhi	r7,16352
 1004160:	100a7e80 	call	100a7e8 <__adddf3>
 1004164:	880d883a 	mov	r6,r17
 1004168:	a00f883a 	mov	r7,r20
 100416c:	1009883a 	mov	r4,r2
 1004170:	180b883a 	mov	r5,r3
 1004174:	100bae00 	call	100bae0 <__ledf2>
 1004178:	10003e0e 	bge	r2,zero,1004274 <_dtoa_r+0x1548>
 100417c:	d9001317 	ldw	r4,76(sp)
 1004180:	bd3fffc3 	ldbu	r20,-1(r23)
 1004184:	d9000515 	stw	r4,20(sp)
 1004188:	003d3b06 	br	1003678 <__alt_mem_TCDM+0xff002678>
 100418c:	0027883a 	mov	r19,zero
 1004190:	003f1b06 	br	1003e00 <__alt_mem_TCDM+0xff002e00>
 1004194:	d8800817 	ldw	r2,32(sp)
 1004198:	11e9c83a 	sub	r20,r2,r7
 100419c:	0005883a 	mov	r2,zero
 10041a0:	003d5406 	br	10036f4 <__alt_mem_TCDM+0xff0026f4>
 10041a4:	00800044 	movi	r2,1
 10041a8:	003dc706 	br	10038c8 <__alt_mem_TCDM+0xff0028c8>
 10041ac:	d8c00217 	ldw	r3,8(sp)
 10041b0:	00800d84 	movi	r2,54
 10041b4:	dd400a17 	ldw	r21,40(sp)
 10041b8:	10c5c83a 	sub	r2,r2,r3
 10041bc:	dd000817 	ldw	r20,32(sp)
 10041c0:	003d4c06 	br	10036f4 <__alt_mem_TCDM+0xff0026f4>
 10041c4:	dc800f15 	stw	r18,60(sp)
 10041c8:	dcc01015 	stw	r19,64(sp)
 10041cc:	04000084 	movi	r16,2
 10041d0:	003bed06 	br	1003188 <__alt_mem_TCDM+0xff002188>
 10041d4:	d9000617 	ldw	r4,24(sp)
 10041d8:	203f0d26 	beq	r4,zero,1003e10 <__alt_mem_TCDM+0xff002e10>
 10041dc:	d9800c17 	ldw	r6,48(sp)
 10041e0:	01bcab0e 	bge	zero,r6,1003490 <__alt_mem_TCDM+0xff002490>
 10041e4:	d9401017 	ldw	r5,64(sp)
 10041e8:	d9000f17 	ldw	r4,60(sp)
 10041ec:	000d883a 	mov	r6,zero
 10041f0:	01d00934 	movhi	r7,16420
 10041f4:	100bbd40 	call	100bbd4 <__muldf3>
 10041f8:	81000044 	addi	r4,r16,1
 10041fc:	d8800f15 	stw	r2,60(sp)
 1004200:	d8c01015 	stw	r3,64(sp)
 1004204:	100cc680 	call	100cc68 <__floatsidf>
 1004208:	d9800f17 	ldw	r6,60(sp)
 100420c:	d9c01017 	ldw	r7,64(sp)
 1004210:	1009883a 	mov	r4,r2
 1004214:	180b883a 	mov	r5,r3
 1004218:	100bbd40 	call	100bbd4 <__muldf3>
 100421c:	01d00734 	movhi	r7,16412
 1004220:	000d883a 	mov	r6,zero
 1004224:	1009883a 	mov	r4,r2
 1004228:	180b883a 	mov	r5,r3
 100422c:	100a7e80 	call	100a7e8 <__adddf3>
 1004230:	d9c00517 	ldw	r7,20(sp)
 1004234:	047f3034 	movhi	r17,64704
 1004238:	1021883a 	mov	r16,r2
 100423c:	39ffffc4 	addi	r7,r7,-1
 1004240:	d9c01315 	stw	r7,76(sp)
 1004244:	1c63883a 	add	r17,r3,r17
 1004248:	db000c17 	ldw	r12,48(sp)
 100424c:	003bea06 	br	10031f8 <__alt_mem_TCDM+0xff0021f8>
 1004250:	dc000915 	stw	r16,36(sp)
 1004254:	003e0e06 	br	1003a90 <__alt_mem_TCDM+0xff002a90>
 1004258:	01000e44 	movi	r4,57
 100425c:	8825883a 	mov	r18,r17
 1004260:	9dc00044 	addi	r23,r19,1
 1004264:	99000005 	stb	r4,0(r19)
 1004268:	a023883a 	mov	r17,r20
 100426c:	dc000915 	stw	r16,36(sp)
 1004270:	003da406 	br	1003904 <__alt_mem_TCDM+0xff002904>
 1004274:	d9801417 	ldw	r6,80(sp)
 1004278:	d9c01517 	ldw	r7,84(sp)
 100427c:	0009883a 	mov	r4,zero
 1004280:	014ff834 	movhi	r5,16352
 1004284:	100c2ec0 	call	100c2ec <__subdf3>
 1004288:	880d883a 	mov	r6,r17
 100428c:	a00f883a 	mov	r7,r20
 1004290:	1009883a 	mov	r4,r2
 1004294:	180b883a 	mov	r5,r3
 1004298:	100ba040 	call	100ba04 <__gedf2>
 100429c:	00bc7c0e 	bge	zero,r2,1003490 <__alt_mem_TCDM+0xff002490>
 10042a0:	01000c04 	movi	r4,48
 10042a4:	00000106 	br	10042ac <_dtoa_r+0x1580>
 10042a8:	102f883a 	mov	r23,r2
 10042ac:	b8bfffc4 	addi	r2,r23,-1
 10042b0:	10c00007 	ldb	r3,0(r2)
 10042b4:	193ffc26 	beq	r3,r4,10042a8 <__alt_mem_TCDM+0xff0032a8>
 10042b8:	d9801317 	ldw	r6,76(sp)
 10042bc:	d9800515 	stw	r6,20(sp)
 10042c0:	003c4406 	br	10033d4 <__alt_mem_TCDM+0xff0023d4>
 10042c4:	d9801317 	ldw	r6,76(sp)
 10042c8:	d9800515 	stw	r6,20(sp)
 10042cc:	003cea06 	br	1003678 <__alt_mem_TCDM+0xff002678>
 10042d0:	dd800f17 	ldw	r22,60(sp)
 10042d4:	dcc01017 	ldw	r19,64(sp)
 10042d8:	dc801217 	ldw	r18,72(sp)
 10042dc:	003c6c06 	br	1003490 <__alt_mem_TCDM+0xff002490>
 10042e0:	903e031e 	bne	r18,zero,1003af0 <__alt_mem_TCDM+0xff002af0>
 10042e4:	003ebb06 	br	1003dd4 <__alt_mem_TCDM+0xff002dd4>
 10042e8:	103e6c1e 	bne	r2,zero,1003c9c <__alt_mem_TCDM+0xff002c9c>
 10042ec:	4080004c 	andi	r2,r8,1
 10042f0:	103e6a26 	beq	r2,zero,1003c9c <__alt_mem_TCDM+0xff002c9c>
 10042f4:	003e6606 	br	1003c90 <__alt_mem_TCDM+0xff002c90>
 10042f8:	d8c00317 	ldw	r3,12(sp)
 10042fc:	00800084 	movi	r2,2
 1004300:	10c02916 	blt	r2,r3,10043a8 <_dtoa_r+0x167c>
 1004304:	d9000c17 	ldw	r4,48(sp)
 1004308:	003e8806 	br	1003d2c <__alt_mem_TCDM+0xff002d2c>
 100430c:	04000084 	movi	r16,2
 1004310:	003b9d06 	br	1003188 <__alt_mem_TCDM+0xff002188>
 1004314:	d9001317 	ldw	r4,76(sp)
 1004318:	d9000515 	stw	r4,20(sp)
 100431c:	003cd606 	br	1003678 <__alt_mem_TCDM+0xff002678>
 1004320:	d8801317 	ldw	r2,76(sp)
 1004324:	d8800515 	stw	r2,20(sp)
 1004328:	003c2a06 	br	10033d4 <__alt_mem_TCDM+0xff0023d4>
 100432c:	d9800317 	ldw	r6,12(sp)
 1004330:	00800084 	movi	r2,2
 1004334:	11801516 	blt	r2,r6,100438c <_dtoa_r+0x1660>
 1004338:	d9c00c17 	ldw	r7,48(sp)
 100433c:	d9c00615 	stw	r7,24(sp)
 1004340:	003df706 	br	1003b20 <__alt_mem_TCDM+0xff002b20>
 1004344:	193d3926 	beq	r3,r4,100382c <__alt_mem_TCDM+0xff00282c>
 1004348:	00c00f04 	movi	r3,60
 100434c:	1885c83a 	sub	r2,r3,r2
 1004350:	003ddf06 	br	1003ad0 <__alt_mem_TCDM+0xff002ad0>
 1004354:	e009883a 	mov	r4,fp
 1004358:	e0001115 	stw	zero,68(fp)
 100435c:	000b883a 	mov	r5,zero
 1004360:	10063c80 	call	10063c8 <_Balloc>
 1004364:	d8800715 	stw	r2,28(sp)
 1004368:	d8c00717 	ldw	r3,28(sp)
 100436c:	00bfffc4 	movi	r2,-1
 1004370:	01000044 	movi	r4,1
 1004374:	d8800c15 	stw	r2,48(sp)
 1004378:	e0c01015 	stw	r3,64(fp)
 100437c:	d9000b15 	stw	r4,44(sp)
 1004380:	d8800615 	stw	r2,24(sp)
 1004384:	d8002215 	stw	zero,136(sp)
 1004388:	003c4106 	br	1003490 <__alt_mem_TCDM+0xff002490>
 100438c:	d8c00c17 	ldw	r3,48(sp)
 1004390:	d8c00615 	stw	r3,24(sp)
 1004394:	003e7006 	br	1003d58 <__alt_mem_TCDM+0xff002d58>
 1004398:	04400044 	movi	r17,1
 100439c:	003b2006 	br	1003020 <__alt_mem_TCDM+0xff002020>
 10043a0:	000b883a 	mov	r5,zero
 10043a4:	003b3d06 	br	100309c <__alt_mem_TCDM+0xff00209c>
 10043a8:	d8800c17 	ldw	r2,48(sp)
 10043ac:	d8800615 	stw	r2,24(sp)
 10043b0:	003e6906 	br	1003d58 <__alt_mem_TCDM+0xff002d58>

010043b4 <__sflush_r>:
 10043b4:	2880030b 	ldhu	r2,12(r5)
 10043b8:	defffb04 	addi	sp,sp,-20
 10043bc:	dcc00315 	stw	r19,12(sp)
 10043c0:	dc400115 	stw	r17,4(sp)
 10043c4:	dfc00415 	stw	ra,16(sp)
 10043c8:	dc800215 	stw	r18,8(sp)
 10043cc:	dc000015 	stw	r16,0(sp)
 10043d0:	10c0020c 	andi	r3,r2,8
 10043d4:	2823883a 	mov	r17,r5
 10043d8:	2027883a 	mov	r19,r4
 10043dc:	1800311e 	bne	r3,zero,10044a4 <__sflush_r+0xf0>
 10043e0:	28c00117 	ldw	r3,4(r5)
 10043e4:	10820014 	ori	r2,r2,2048
 10043e8:	2880030d 	sth	r2,12(r5)
 10043ec:	00c04b0e 	bge	zero,r3,100451c <__sflush_r+0x168>
 10043f0:	8a000a17 	ldw	r8,40(r17)
 10043f4:	40002326 	beq	r8,zero,1004484 <__sflush_r+0xd0>
 10043f8:	9c000017 	ldw	r16,0(r19)
 10043fc:	10c4000c 	andi	r3,r2,4096
 1004400:	98000015 	stw	zero,0(r19)
 1004404:	18004826 	beq	r3,zero,1004528 <__sflush_r+0x174>
 1004408:	89801417 	ldw	r6,80(r17)
 100440c:	10c0010c 	andi	r3,r2,4
 1004410:	18000626 	beq	r3,zero,100442c <__sflush_r+0x78>
 1004414:	88c00117 	ldw	r3,4(r17)
 1004418:	88800c17 	ldw	r2,48(r17)
 100441c:	30cdc83a 	sub	r6,r6,r3
 1004420:	10000226 	beq	r2,zero,100442c <__sflush_r+0x78>
 1004424:	88800f17 	ldw	r2,60(r17)
 1004428:	308dc83a 	sub	r6,r6,r2
 100442c:	89400717 	ldw	r5,28(r17)
 1004430:	000f883a 	mov	r7,zero
 1004434:	9809883a 	mov	r4,r19
 1004438:	403ee83a 	callr	r8
 100443c:	00ffffc4 	movi	r3,-1
 1004440:	10c04426 	beq	r2,r3,1004554 <__sflush_r+0x1a0>
 1004444:	88c0030b 	ldhu	r3,12(r17)
 1004448:	89000417 	ldw	r4,16(r17)
 100444c:	88000115 	stw	zero,4(r17)
 1004450:	197dffcc 	andi	r5,r3,63487
 1004454:	8940030d 	sth	r5,12(r17)
 1004458:	89000015 	stw	r4,0(r17)
 100445c:	18c4000c 	andi	r3,r3,4096
 1004460:	18002c1e 	bne	r3,zero,1004514 <__sflush_r+0x160>
 1004464:	89400c17 	ldw	r5,48(r17)
 1004468:	9c000015 	stw	r16,0(r19)
 100446c:	28000526 	beq	r5,zero,1004484 <__sflush_r+0xd0>
 1004470:	88801004 	addi	r2,r17,64
 1004474:	28800226 	beq	r5,r2,1004480 <__sflush_r+0xcc>
 1004478:	9809883a 	mov	r4,r19
 100447c:	1004b200 	call	1004b20 <_free_r>
 1004480:	88000c15 	stw	zero,48(r17)
 1004484:	0005883a 	mov	r2,zero
 1004488:	dfc00417 	ldw	ra,16(sp)
 100448c:	dcc00317 	ldw	r19,12(sp)
 1004490:	dc800217 	ldw	r18,8(sp)
 1004494:	dc400117 	ldw	r17,4(sp)
 1004498:	dc000017 	ldw	r16,0(sp)
 100449c:	dec00504 	addi	sp,sp,20
 10044a0:	f800283a 	ret
 10044a4:	2c800417 	ldw	r18,16(r5)
 10044a8:	903ff626 	beq	r18,zero,1004484 <__alt_mem_TCDM+0xff003484>
 10044ac:	2c000017 	ldw	r16,0(r5)
 10044b0:	108000cc 	andi	r2,r2,3
 10044b4:	2c800015 	stw	r18,0(r5)
 10044b8:	84a1c83a 	sub	r16,r16,r18
 10044bc:	1000131e 	bne	r2,zero,100450c <__sflush_r+0x158>
 10044c0:	28800517 	ldw	r2,20(r5)
 10044c4:	88800215 	stw	r2,8(r17)
 10044c8:	04000316 	blt	zero,r16,10044d8 <__sflush_r+0x124>
 10044cc:	003fed06 	br	1004484 <__alt_mem_TCDM+0xff003484>
 10044d0:	90a5883a 	add	r18,r18,r2
 10044d4:	043feb0e 	bge	zero,r16,1004484 <__alt_mem_TCDM+0xff003484>
 10044d8:	88800917 	ldw	r2,36(r17)
 10044dc:	89400717 	ldw	r5,28(r17)
 10044e0:	800f883a 	mov	r7,r16
 10044e4:	900d883a 	mov	r6,r18
 10044e8:	9809883a 	mov	r4,r19
 10044ec:	103ee83a 	callr	r2
 10044f0:	80a1c83a 	sub	r16,r16,r2
 10044f4:	00bff616 	blt	zero,r2,10044d0 <__alt_mem_TCDM+0xff0034d0>
 10044f8:	88c0030b 	ldhu	r3,12(r17)
 10044fc:	00bfffc4 	movi	r2,-1
 1004500:	18c01014 	ori	r3,r3,64
 1004504:	88c0030d 	sth	r3,12(r17)
 1004508:	003fdf06 	br	1004488 <__alt_mem_TCDM+0xff003488>
 100450c:	0005883a 	mov	r2,zero
 1004510:	003fec06 	br	10044c4 <__alt_mem_TCDM+0xff0034c4>
 1004514:	88801415 	stw	r2,80(r17)
 1004518:	003fd206 	br	1004464 <__alt_mem_TCDM+0xff003464>
 100451c:	28c00f17 	ldw	r3,60(r5)
 1004520:	00ffb316 	blt	zero,r3,10043f0 <__alt_mem_TCDM+0xff0033f0>
 1004524:	003fd706 	br	1004484 <__alt_mem_TCDM+0xff003484>
 1004528:	89400717 	ldw	r5,28(r17)
 100452c:	000d883a 	mov	r6,zero
 1004530:	01c00044 	movi	r7,1
 1004534:	9809883a 	mov	r4,r19
 1004538:	403ee83a 	callr	r8
 100453c:	100d883a 	mov	r6,r2
 1004540:	00bfffc4 	movi	r2,-1
 1004544:	30801426 	beq	r6,r2,1004598 <__sflush_r+0x1e4>
 1004548:	8880030b 	ldhu	r2,12(r17)
 100454c:	8a000a17 	ldw	r8,40(r17)
 1004550:	003fae06 	br	100440c <__alt_mem_TCDM+0xff00340c>
 1004554:	98c00017 	ldw	r3,0(r19)
 1004558:	183fba26 	beq	r3,zero,1004444 <__alt_mem_TCDM+0xff003444>
 100455c:	01000744 	movi	r4,29
 1004560:	19000626 	beq	r3,r4,100457c <__sflush_r+0x1c8>
 1004564:	01000584 	movi	r4,22
 1004568:	19000426 	beq	r3,r4,100457c <__sflush_r+0x1c8>
 100456c:	88c0030b 	ldhu	r3,12(r17)
 1004570:	18c01014 	ori	r3,r3,64
 1004574:	88c0030d 	sth	r3,12(r17)
 1004578:	003fc306 	br	1004488 <__alt_mem_TCDM+0xff003488>
 100457c:	8880030b 	ldhu	r2,12(r17)
 1004580:	88c00417 	ldw	r3,16(r17)
 1004584:	88000115 	stw	zero,4(r17)
 1004588:	10bdffcc 	andi	r2,r2,63487
 100458c:	8880030d 	sth	r2,12(r17)
 1004590:	88c00015 	stw	r3,0(r17)
 1004594:	003fb306 	br	1004464 <__alt_mem_TCDM+0xff003464>
 1004598:	98800017 	ldw	r2,0(r19)
 100459c:	103fea26 	beq	r2,zero,1004548 <__alt_mem_TCDM+0xff003548>
 10045a0:	00c00744 	movi	r3,29
 10045a4:	10c00226 	beq	r2,r3,10045b0 <__sflush_r+0x1fc>
 10045a8:	00c00584 	movi	r3,22
 10045ac:	10c0031e 	bne	r2,r3,10045bc <__sflush_r+0x208>
 10045b0:	9c000015 	stw	r16,0(r19)
 10045b4:	0005883a 	mov	r2,zero
 10045b8:	003fb306 	br	1004488 <__alt_mem_TCDM+0xff003488>
 10045bc:	88c0030b 	ldhu	r3,12(r17)
 10045c0:	3005883a 	mov	r2,r6
 10045c4:	18c01014 	ori	r3,r3,64
 10045c8:	88c0030d 	sth	r3,12(r17)
 10045cc:	003fae06 	br	1004488 <__alt_mem_TCDM+0xff003488>

010045d0 <_fflush_r>:
 10045d0:	defffd04 	addi	sp,sp,-12
 10045d4:	dc000115 	stw	r16,4(sp)
 10045d8:	dfc00215 	stw	ra,8(sp)
 10045dc:	2021883a 	mov	r16,r4
 10045e0:	20000226 	beq	r4,zero,10045ec <_fflush_r+0x1c>
 10045e4:	20800e17 	ldw	r2,56(r4)
 10045e8:	10000c26 	beq	r2,zero,100461c <_fflush_r+0x4c>
 10045ec:	2880030f 	ldh	r2,12(r5)
 10045f0:	1000051e 	bne	r2,zero,1004608 <_fflush_r+0x38>
 10045f4:	0005883a 	mov	r2,zero
 10045f8:	dfc00217 	ldw	ra,8(sp)
 10045fc:	dc000117 	ldw	r16,4(sp)
 1004600:	dec00304 	addi	sp,sp,12
 1004604:	f800283a 	ret
 1004608:	8009883a 	mov	r4,r16
 100460c:	dfc00217 	ldw	ra,8(sp)
 1004610:	dc000117 	ldw	r16,4(sp)
 1004614:	dec00304 	addi	sp,sp,12
 1004618:	10043b41 	jmpi	10043b4 <__sflush_r>
 100461c:	d9400015 	stw	r5,0(sp)
 1004620:	10049ac0 	call	10049ac <__sinit>
 1004624:	d9400017 	ldw	r5,0(sp)
 1004628:	003ff006 	br	10045ec <__alt_mem_TCDM+0xff0035ec>

0100462c <fflush>:
 100462c:	20000526 	beq	r4,zero,1004644 <fflush+0x18>
 1004630:	00804074 	movhi	r2,257
 1004634:	1086fe04 	addi	r2,r2,7160
 1004638:	200b883a 	mov	r5,r4
 100463c:	11000017 	ldw	r4,0(r2)
 1004640:	10045d01 	jmpi	10045d0 <_fflush_r>
 1004644:	00804074 	movhi	r2,257
 1004648:	1086fd04 	addi	r2,r2,7156
 100464c:	11000017 	ldw	r4,0(r2)
 1004650:	01404034 	movhi	r5,256
 1004654:	29517404 	addi	r5,r5,17872
 1004658:	10053b01 	jmpi	10053b0 <_fwalk_reent>

0100465c <__fp_unlock>:
 100465c:	0005883a 	mov	r2,zero
 1004660:	f800283a 	ret

01004664 <_cleanup_r>:
 1004664:	01404074 	movhi	r5,257
 1004668:	2964f204 	addi	r5,r5,-27704
 100466c:	10053b01 	jmpi	10053b0 <_fwalk_reent>

01004670 <__sinit.part.1>:
 1004670:	defff704 	addi	sp,sp,-36
 1004674:	00c04034 	movhi	r3,256
 1004678:	dfc00815 	stw	ra,32(sp)
 100467c:	ddc00715 	stw	r23,28(sp)
 1004680:	dd800615 	stw	r22,24(sp)
 1004684:	dd400515 	stw	r21,20(sp)
 1004688:	dd000415 	stw	r20,16(sp)
 100468c:	dcc00315 	stw	r19,12(sp)
 1004690:	dc800215 	stw	r18,8(sp)
 1004694:	dc400115 	stw	r17,4(sp)
 1004698:	dc000015 	stw	r16,0(sp)
 100469c:	18d19904 	addi	r3,r3,18020
 10046a0:	24000117 	ldw	r16,4(r4)
 10046a4:	20c00f15 	stw	r3,60(r4)
 10046a8:	2080bb04 	addi	r2,r4,748
 10046ac:	00c000c4 	movi	r3,3
 10046b0:	20c0b915 	stw	r3,740(r4)
 10046b4:	2080ba15 	stw	r2,744(r4)
 10046b8:	2000b815 	stw	zero,736(r4)
 10046bc:	05c00204 	movi	r23,8
 10046c0:	00800104 	movi	r2,4
 10046c4:	2025883a 	mov	r18,r4
 10046c8:	b80d883a 	mov	r6,r23
 10046cc:	81001704 	addi	r4,r16,92
 10046d0:	000b883a 	mov	r5,zero
 10046d4:	80000015 	stw	zero,0(r16)
 10046d8:	80000115 	stw	zero,4(r16)
 10046dc:	80000215 	stw	zero,8(r16)
 10046e0:	8080030d 	sth	r2,12(r16)
 10046e4:	80001915 	stw	zero,100(r16)
 10046e8:	8000038d 	sth	zero,14(r16)
 10046ec:	80000415 	stw	zero,16(r16)
 10046f0:	80000515 	stw	zero,20(r16)
 10046f4:	80000615 	stw	zero,24(r16)
 10046f8:	10062a00 	call	10062a0 <memset>
 10046fc:	05804034 	movhi	r22,256
 1004700:	94400217 	ldw	r17,8(r18)
 1004704:	05404034 	movhi	r21,256
 1004708:	05004034 	movhi	r20,256
 100470c:	04c04034 	movhi	r19,256
 1004710:	b59e7c04 	addi	r22,r22,31216
 1004714:	ad5e9304 	addi	r21,r21,31308
 1004718:	a51eb204 	addi	r20,r20,31432
 100471c:	9cdec904 	addi	r19,r19,31524
 1004720:	85800815 	stw	r22,32(r16)
 1004724:	85400915 	stw	r21,36(r16)
 1004728:	85000a15 	stw	r20,40(r16)
 100472c:	84c00b15 	stw	r19,44(r16)
 1004730:	84000715 	stw	r16,28(r16)
 1004734:	00800284 	movi	r2,10
 1004738:	8880030d 	sth	r2,12(r17)
 100473c:	00800044 	movi	r2,1
 1004740:	b80d883a 	mov	r6,r23
 1004744:	89001704 	addi	r4,r17,92
 1004748:	000b883a 	mov	r5,zero
 100474c:	88000015 	stw	zero,0(r17)
 1004750:	88000115 	stw	zero,4(r17)
 1004754:	88000215 	stw	zero,8(r17)
 1004758:	88001915 	stw	zero,100(r17)
 100475c:	8880038d 	sth	r2,14(r17)
 1004760:	88000415 	stw	zero,16(r17)
 1004764:	88000515 	stw	zero,20(r17)
 1004768:	88000615 	stw	zero,24(r17)
 100476c:	10062a00 	call	10062a0 <memset>
 1004770:	94000317 	ldw	r16,12(r18)
 1004774:	00800484 	movi	r2,18
 1004778:	8c400715 	stw	r17,28(r17)
 100477c:	8d800815 	stw	r22,32(r17)
 1004780:	8d400915 	stw	r21,36(r17)
 1004784:	8d000a15 	stw	r20,40(r17)
 1004788:	8cc00b15 	stw	r19,44(r17)
 100478c:	8080030d 	sth	r2,12(r16)
 1004790:	00800084 	movi	r2,2
 1004794:	80000015 	stw	zero,0(r16)
 1004798:	80000115 	stw	zero,4(r16)
 100479c:	80000215 	stw	zero,8(r16)
 10047a0:	80001915 	stw	zero,100(r16)
 10047a4:	8080038d 	sth	r2,14(r16)
 10047a8:	80000415 	stw	zero,16(r16)
 10047ac:	80000515 	stw	zero,20(r16)
 10047b0:	80000615 	stw	zero,24(r16)
 10047b4:	b80d883a 	mov	r6,r23
 10047b8:	000b883a 	mov	r5,zero
 10047bc:	81001704 	addi	r4,r16,92
 10047c0:	10062a00 	call	10062a0 <memset>
 10047c4:	00800044 	movi	r2,1
 10047c8:	84000715 	stw	r16,28(r16)
 10047cc:	85800815 	stw	r22,32(r16)
 10047d0:	85400915 	stw	r21,36(r16)
 10047d4:	85000a15 	stw	r20,40(r16)
 10047d8:	84c00b15 	stw	r19,44(r16)
 10047dc:	90800e15 	stw	r2,56(r18)
 10047e0:	dfc00817 	ldw	ra,32(sp)
 10047e4:	ddc00717 	ldw	r23,28(sp)
 10047e8:	dd800617 	ldw	r22,24(sp)
 10047ec:	dd400517 	ldw	r21,20(sp)
 10047f0:	dd000417 	ldw	r20,16(sp)
 10047f4:	dcc00317 	ldw	r19,12(sp)
 10047f8:	dc800217 	ldw	r18,8(sp)
 10047fc:	dc400117 	ldw	r17,4(sp)
 1004800:	dc000017 	ldw	r16,0(sp)
 1004804:	dec00904 	addi	sp,sp,36
 1004808:	f800283a 	ret

0100480c <__fp_lock>:
 100480c:	0005883a 	mov	r2,zero
 1004810:	f800283a 	ret

01004814 <__sfmoreglue>:
 1004814:	defffc04 	addi	sp,sp,-16
 1004818:	dc400115 	stw	r17,4(sp)
 100481c:	2c7fffc4 	addi	r17,r5,-1
 1004820:	8c401a24 	muli	r17,r17,104
 1004824:	dc800215 	stw	r18,8(sp)
 1004828:	2825883a 	mov	r18,r5
 100482c:	89401d04 	addi	r5,r17,116
 1004830:	dc000015 	stw	r16,0(sp)
 1004834:	dfc00315 	stw	ra,12(sp)
 1004838:	100570c0 	call	100570c <_malloc_r>
 100483c:	1021883a 	mov	r16,r2
 1004840:	10000726 	beq	r2,zero,1004860 <__sfmoreglue+0x4c>
 1004844:	11000304 	addi	r4,r2,12
 1004848:	10000015 	stw	zero,0(r2)
 100484c:	14800115 	stw	r18,4(r2)
 1004850:	11000215 	stw	r4,8(r2)
 1004854:	89801a04 	addi	r6,r17,104
 1004858:	000b883a 	mov	r5,zero
 100485c:	10062a00 	call	10062a0 <memset>
 1004860:	8005883a 	mov	r2,r16
 1004864:	dfc00317 	ldw	ra,12(sp)
 1004868:	dc800217 	ldw	r18,8(sp)
 100486c:	dc400117 	ldw	r17,4(sp)
 1004870:	dc000017 	ldw	r16,0(sp)
 1004874:	dec00404 	addi	sp,sp,16
 1004878:	f800283a 	ret

0100487c <__sfp>:
 100487c:	defffb04 	addi	sp,sp,-20
 1004880:	dc000015 	stw	r16,0(sp)
 1004884:	04004074 	movhi	r16,257
 1004888:	8406fd04 	addi	r16,r16,7156
 100488c:	dcc00315 	stw	r19,12(sp)
 1004890:	2027883a 	mov	r19,r4
 1004894:	81000017 	ldw	r4,0(r16)
 1004898:	dfc00415 	stw	ra,16(sp)
 100489c:	dc800215 	stw	r18,8(sp)
 10048a0:	20800e17 	ldw	r2,56(r4)
 10048a4:	dc400115 	stw	r17,4(sp)
 10048a8:	1000021e 	bne	r2,zero,10048b4 <__sfp+0x38>
 10048ac:	10046700 	call	1004670 <__sinit.part.1>
 10048b0:	81000017 	ldw	r4,0(r16)
 10048b4:	2480b804 	addi	r18,r4,736
 10048b8:	047fffc4 	movi	r17,-1
 10048bc:	91000117 	ldw	r4,4(r18)
 10048c0:	94000217 	ldw	r16,8(r18)
 10048c4:	213fffc4 	addi	r4,r4,-1
 10048c8:	20000a16 	blt	r4,zero,10048f4 <__sfp+0x78>
 10048cc:	8080030f 	ldh	r2,12(r16)
 10048d0:	10000c26 	beq	r2,zero,1004904 <__sfp+0x88>
 10048d4:	80c01d04 	addi	r3,r16,116
 10048d8:	00000206 	br	10048e4 <__sfp+0x68>
 10048dc:	18bfe60f 	ldh	r2,-104(r3)
 10048e0:	10000826 	beq	r2,zero,1004904 <__sfp+0x88>
 10048e4:	213fffc4 	addi	r4,r4,-1
 10048e8:	1c3ffd04 	addi	r16,r3,-12
 10048ec:	18c01a04 	addi	r3,r3,104
 10048f0:	247ffa1e 	bne	r4,r17,10048dc <__alt_mem_TCDM+0xff0038dc>
 10048f4:	90800017 	ldw	r2,0(r18)
 10048f8:	10001d26 	beq	r2,zero,1004970 <__sfp+0xf4>
 10048fc:	1025883a 	mov	r18,r2
 1004900:	003fee06 	br	10048bc <__alt_mem_TCDM+0xff0038bc>
 1004904:	00bfffc4 	movi	r2,-1
 1004908:	8080038d 	sth	r2,14(r16)
 100490c:	00800044 	movi	r2,1
 1004910:	8080030d 	sth	r2,12(r16)
 1004914:	80001915 	stw	zero,100(r16)
 1004918:	80000015 	stw	zero,0(r16)
 100491c:	80000215 	stw	zero,8(r16)
 1004920:	80000115 	stw	zero,4(r16)
 1004924:	80000415 	stw	zero,16(r16)
 1004928:	80000515 	stw	zero,20(r16)
 100492c:	80000615 	stw	zero,24(r16)
 1004930:	01800204 	movi	r6,8
 1004934:	000b883a 	mov	r5,zero
 1004938:	81001704 	addi	r4,r16,92
 100493c:	10062a00 	call	10062a0 <memset>
 1004940:	8005883a 	mov	r2,r16
 1004944:	80000c15 	stw	zero,48(r16)
 1004948:	80000d15 	stw	zero,52(r16)
 100494c:	80001115 	stw	zero,68(r16)
 1004950:	80001215 	stw	zero,72(r16)
 1004954:	dfc00417 	ldw	ra,16(sp)
 1004958:	dcc00317 	ldw	r19,12(sp)
 100495c:	dc800217 	ldw	r18,8(sp)
 1004960:	dc400117 	ldw	r17,4(sp)
 1004964:	dc000017 	ldw	r16,0(sp)
 1004968:	dec00504 	addi	sp,sp,20
 100496c:	f800283a 	ret
 1004970:	01400104 	movi	r5,4
 1004974:	9809883a 	mov	r4,r19
 1004978:	10048140 	call	1004814 <__sfmoreglue>
 100497c:	90800015 	stw	r2,0(r18)
 1004980:	103fde1e 	bne	r2,zero,10048fc <__alt_mem_TCDM+0xff0038fc>
 1004984:	00800304 	movi	r2,12
 1004988:	98800015 	stw	r2,0(r19)
 100498c:	0005883a 	mov	r2,zero
 1004990:	003ff006 	br	1004954 <__alt_mem_TCDM+0xff003954>

01004994 <_cleanup>:
 1004994:	00804074 	movhi	r2,257
 1004998:	1086fd04 	addi	r2,r2,7156
 100499c:	11000017 	ldw	r4,0(r2)
 10049a0:	01404074 	movhi	r5,257
 10049a4:	2964f204 	addi	r5,r5,-27704
 10049a8:	10053b01 	jmpi	10053b0 <_fwalk_reent>

010049ac <__sinit>:
 10049ac:	20800e17 	ldw	r2,56(r4)
 10049b0:	10000126 	beq	r2,zero,10049b8 <__sinit+0xc>
 10049b4:	f800283a 	ret
 10049b8:	10046701 	jmpi	1004670 <__sinit.part.1>

010049bc <__sfp_lock_acquire>:
 10049bc:	f800283a 	ret

010049c0 <__sfp_lock_release>:
 10049c0:	f800283a 	ret

010049c4 <__sinit_lock_acquire>:
 10049c4:	f800283a 	ret

010049c8 <__sinit_lock_release>:
 10049c8:	f800283a 	ret

010049cc <__fp_lock_all>:
 10049cc:	00804074 	movhi	r2,257
 10049d0:	1086fe04 	addi	r2,r2,7160
 10049d4:	11000017 	ldw	r4,0(r2)
 10049d8:	01404034 	movhi	r5,256
 10049dc:	29520304 	addi	r5,r5,18444
 10049e0:	10052ec1 	jmpi	10052ec <_fwalk>

010049e4 <__fp_unlock_all>:
 10049e4:	00804074 	movhi	r2,257
 10049e8:	1086fe04 	addi	r2,r2,7160
 10049ec:	11000017 	ldw	r4,0(r2)
 10049f0:	01404034 	movhi	r5,256
 10049f4:	29519704 	addi	r5,r5,18012
 10049f8:	10052ec1 	jmpi	10052ec <_fwalk>

010049fc <_malloc_trim_r>:
 10049fc:	defffb04 	addi	sp,sp,-20
 1004a00:	dcc00315 	stw	r19,12(sp)
 1004a04:	04c04074 	movhi	r19,257
 1004a08:	dc800215 	stw	r18,8(sp)
 1004a0c:	dc400115 	stw	r17,4(sp)
 1004a10:	dc000015 	stw	r16,0(sp)
 1004a14:	dfc00415 	stw	ra,16(sp)
 1004a18:	2821883a 	mov	r16,r5
 1004a1c:	9cc17904 	addi	r19,r19,1508
 1004a20:	2025883a 	mov	r18,r4
 1004a24:	100d54c0 	call	100d54c <__malloc_lock>
 1004a28:	98800217 	ldw	r2,8(r19)
 1004a2c:	14400117 	ldw	r17,4(r2)
 1004a30:	00bfff04 	movi	r2,-4
 1004a34:	88a2703a 	and	r17,r17,r2
 1004a38:	8c21c83a 	sub	r16,r17,r16
 1004a3c:	8403fbc4 	addi	r16,r16,4079
 1004a40:	8020d33a 	srli	r16,r16,12
 1004a44:	0083ffc4 	movi	r2,4095
 1004a48:	843fffc4 	addi	r16,r16,-1
 1004a4c:	8020933a 	slli	r16,r16,12
 1004a50:	1400060e 	bge	r2,r16,1004a6c <_malloc_trim_r+0x70>
 1004a54:	000b883a 	mov	r5,zero
 1004a58:	9009883a 	mov	r4,r18
 1004a5c:	100799c0 	call	100799c <_sbrk_r>
 1004a60:	98c00217 	ldw	r3,8(r19)
 1004a64:	1c47883a 	add	r3,r3,r17
 1004a68:	10c00a26 	beq	r2,r3,1004a94 <_malloc_trim_r+0x98>
 1004a6c:	9009883a 	mov	r4,r18
 1004a70:	100d5700 	call	100d570 <__malloc_unlock>
 1004a74:	0005883a 	mov	r2,zero
 1004a78:	dfc00417 	ldw	ra,16(sp)
 1004a7c:	dcc00317 	ldw	r19,12(sp)
 1004a80:	dc800217 	ldw	r18,8(sp)
 1004a84:	dc400117 	ldw	r17,4(sp)
 1004a88:	dc000017 	ldw	r16,0(sp)
 1004a8c:	dec00504 	addi	sp,sp,20
 1004a90:	f800283a 	ret
 1004a94:	040bc83a 	sub	r5,zero,r16
 1004a98:	9009883a 	mov	r4,r18
 1004a9c:	100799c0 	call	100799c <_sbrk_r>
 1004aa0:	00ffffc4 	movi	r3,-1
 1004aa4:	10c00d26 	beq	r2,r3,1004adc <_malloc_trim_r+0xe0>
 1004aa8:	00c04074 	movhi	r3,257
 1004aac:	18cdd604 	addi	r3,r3,14168
 1004ab0:	18800017 	ldw	r2,0(r3)
 1004ab4:	99000217 	ldw	r4,8(r19)
 1004ab8:	8c23c83a 	sub	r17,r17,r16
 1004abc:	8c400054 	ori	r17,r17,1
 1004ac0:	1421c83a 	sub	r16,r2,r16
 1004ac4:	24400115 	stw	r17,4(r4)
 1004ac8:	9009883a 	mov	r4,r18
 1004acc:	1c000015 	stw	r16,0(r3)
 1004ad0:	100d5700 	call	100d570 <__malloc_unlock>
 1004ad4:	00800044 	movi	r2,1
 1004ad8:	003fe706 	br	1004a78 <__alt_mem_TCDM+0xff003a78>
 1004adc:	000b883a 	mov	r5,zero
 1004ae0:	9009883a 	mov	r4,r18
 1004ae4:	100799c0 	call	100799c <_sbrk_r>
 1004ae8:	99000217 	ldw	r4,8(r19)
 1004aec:	014003c4 	movi	r5,15
 1004af0:	1107c83a 	sub	r3,r2,r4
 1004af4:	28ffdd0e 	bge	r5,r3,1004a6c <__alt_mem_TCDM+0xff003a6c>
 1004af8:	01404074 	movhi	r5,257
 1004afc:	29470004 	addi	r5,r5,7168
 1004b00:	29400017 	ldw	r5,0(r5)
 1004b04:	18c00054 	ori	r3,r3,1
 1004b08:	20c00115 	stw	r3,4(r4)
 1004b0c:	00c04074 	movhi	r3,257
 1004b10:	1145c83a 	sub	r2,r2,r5
 1004b14:	18cdd604 	addi	r3,r3,14168
 1004b18:	18800015 	stw	r2,0(r3)
 1004b1c:	003fd306 	br	1004a6c <__alt_mem_TCDM+0xff003a6c>

01004b20 <_free_r>:
 1004b20:	28004126 	beq	r5,zero,1004c28 <_free_r+0x108>
 1004b24:	defffd04 	addi	sp,sp,-12
 1004b28:	dc400115 	stw	r17,4(sp)
 1004b2c:	dc000015 	stw	r16,0(sp)
 1004b30:	2023883a 	mov	r17,r4
 1004b34:	2821883a 	mov	r16,r5
 1004b38:	dfc00215 	stw	ra,8(sp)
 1004b3c:	100d54c0 	call	100d54c <__malloc_lock>
 1004b40:	81ffff17 	ldw	r7,-4(r16)
 1004b44:	00bfff84 	movi	r2,-2
 1004b48:	01004074 	movhi	r4,257
 1004b4c:	81bffe04 	addi	r6,r16,-8
 1004b50:	3884703a 	and	r2,r7,r2
 1004b54:	21017904 	addi	r4,r4,1508
 1004b58:	308b883a 	add	r5,r6,r2
 1004b5c:	2a400117 	ldw	r9,4(r5)
 1004b60:	22000217 	ldw	r8,8(r4)
 1004b64:	00ffff04 	movi	r3,-4
 1004b68:	48c6703a 	and	r3,r9,r3
 1004b6c:	2a005726 	beq	r5,r8,1004ccc <_free_r+0x1ac>
 1004b70:	28c00115 	stw	r3,4(r5)
 1004b74:	39c0004c 	andi	r7,r7,1
 1004b78:	3800091e 	bne	r7,zero,1004ba0 <_free_r+0x80>
 1004b7c:	823ffe17 	ldw	r8,-8(r16)
 1004b80:	22400204 	addi	r9,r4,8
 1004b84:	320dc83a 	sub	r6,r6,r8
 1004b88:	31c00217 	ldw	r7,8(r6)
 1004b8c:	1205883a 	add	r2,r2,r8
 1004b90:	3a406526 	beq	r7,r9,1004d28 <_free_r+0x208>
 1004b94:	32000317 	ldw	r8,12(r6)
 1004b98:	3a000315 	stw	r8,12(r7)
 1004b9c:	41c00215 	stw	r7,8(r8)
 1004ba0:	28cf883a 	add	r7,r5,r3
 1004ba4:	39c00117 	ldw	r7,4(r7)
 1004ba8:	39c0004c 	andi	r7,r7,1
 1004bac:	38003a26 	beq	r7,zero,1004c98 <_free_r+0x178>
 1004bb0:	10c00054 	ori	r3,r2,1
 1004bb4:	30c00115 	stw	r3,4(r6)
 1004bb8:	3087883a 	add	r3,r6,r2
 1004bbc:	18800015 	stw	r2,0(r3)
 1004bc0:	00c07fc4 	movi	r3,511
 1004bc4:	18801936 	bltu	r3,r2,1004c2c <_free_r+0x10c>
 1004bc8:	1004d0fa 	srli	r2,r2,3
 1004bcc:	01c00044 	movi	r7,1
 1004bd0:	21400117 	ldw	r5,4(r4)
 1004bd4:	10c00044 	addi	r3,r2,1
 1004bd8:	18c7883a 	add	r3,r3,r3
 1004bdc:	1005d0ba 	srai	r2,r2,2
 1004be0:	18c7883a 	add	r3,r3,r3
 1004be4:	18c7883a 	add	r3,r3,r3
 1004be8:	1907883a 	add	r3,r3,r4
 1004bec:	3884983a 	sll	r2,r7,r2
 1004bf0:	19c00017 	ldw	r7,0(r3)
 1004bf4:	1a3ffe04 	addi	r8,r3,-8
 1004bf8:	1144b03a 	or	r2,r2,r5
 1004bfc:	32000315 	stw	r8,12(r6)
 1004c00:	31c00215 	stw	r7,8(r6)
 1004c04:	20800115 	stw	r2,4(r4)
 1004c08:	19800015 	stw	r6,0(r3)
 1004c0c:	39800315 	stw	r6,12(r7)
 1004c10:	8809883a 	mov	r4,r17
 1004c14:	dfc00217 	ldw	ra,8(sp)
 1004c18:	dc400117 	ldw	r17,4(sp)
 1004c1c:	dc000017 	ldw	r16,0(sp)
 1004c20:	dec00304 	addi	sp,sp,12
 1004c24:	100d5701 	jmpi	100d570 <__malloc_unlock>
 1004c28:	f800283a 	ret
 1004c2c:	100ad27a 	srli	r5,r2,9
 1004c30:	00c00104 	movi	r3,4
 1004c34:	19404a36 	bltu	r3,r5,1004d60 <_free_r+0x240>
 1004c38:	100ad1ba 	srli	r5,r2,6
 1004c3c:	28c00e44 	addi	r3,r5,57
 1004c40:	18c7883a 	add	r3,r3,r3
 1004c44:	29400e04 	addi	r5,r5,56
 1004c48:	18c7883a 	add	r3,r3,r3
 1004c4c:	18c7883a 	add	r3,r3,r3
 1004c50:	1909883a 	add	r4,r3,r4
 1004c54:	20c00017 	ldw	r3,0(r4)
 1004c58:	01c04074 	movhi	r7,257
 1004c5c:	213ffe04 	addi	r4,r4,-8
 1004c60:	39c17904 	addi	r7,r7,1508
 1004c64:	20c04426 	beq	r4,r3,1004d78 <_free_r+0x258>
 1004c68:	01ffff04 	movi	r7,-4
 1004c6c:	19400117 	ldw	r5,4(r3)
 1004c70:	29ca703a 	and	r5,r5,r7
 1004c74:	1140022e 	bgeu	r2,r5,1004c80 <_free_r+0x160>
 1004c78:	18c00217 	ldw	r3,8(r3)
 1004c7c:	20fffb1e 	bne	r4,r3,1004c6c <__alt_mem_TCDM+0xff003c6c>
 1004c80:	19000317 	ldw	r4,12(r3)
 1004c84:	31000315 	stw	r4,12(r6)
 1004c88:	30c00215 	stw	r3,8(r6)
 1004c8c:	21800215 	stw	r6,8(r4)
 1004c90:	19800315 	stw	r6,12(r3)
 1004c94:	003fde06 	br	1004c10 <__alt_mem_TCDM+0xff003c10>
 1004c98:	29c00217 	ldw	r7,8(r5)
 1004c9c:	10c5883a 	add	r2,r2,r3
 1004ca0:	00c04074 	movhi	r3,257
 1004ca4:	18c17b04 	addi	r3,r3,1516
 1004ca8:	38c03b26 	beq	r7,r3,1004d98 <_free_r+0x278>
 1004cac:	2a000317 	ldw	r8,12(r5)
 1004cb0:	11400054 	ori	r5,r2,1
 1004cb4:	3087883a 	add	r3,r6,r2
 1004cb8:	3a000315 	stw	r8,12(r7)
 1004cbc:	41c00215 	stw	r7,8(r8)
 1004cc0:	31400115 	stw	r5,4(r6)
 1004cc4:	18800015 	stw	r2,0(r3)
 1004cc8:	003fbd06 	br	1004bc0 <__alt_mem_TCDM+0xff003bc0>
 1004ccc:	39c0004c 	andi	r7,r7,1
 1004cd0:	10c5883a 	add	r2,r2,r3
 1004cd4:	3800071e 	bne	r7,zero,1004cf4 <_free_r+0x1d4>
 1004cd8:	81fffe17 	ldw	r7,-8(r16)
 1004cdc:	31cdc83a 	sub	r6,r6,r7
 1004ce0:	30c00317 	ldw	r3,12(r6)
 1004ce4:	31400217 	ldw	r5,8(r6)
 1004ce8:	11c5883a 	add	r2,r2,r7
 1004cec:	28c00315 	stw	r3,12(r5)
 1004cf0:	19400215 	stw	r5,8(r3)
 1004cf4:	10c00054 	ori	r3,r2,1
 1004cf8:	30c00115 	stw	r3,4(r6)
 1004cfc:	00c04074 	movhi	r3,257
 1004d00:	18c70104 	addi	r3,r3,7172
 1004d04:	18c00017 	ldw	r3,0(r3)
 1004d08:	21800215 	stw	r6,8(r4)
 1004d0c:	10ffc036 	bltu	r2,r3,1004c10 <__alt_mem_TCDM+0xff003c10>
 1004d10:	00804074 	movhi	r2,257
 1004d14:	108dcd04 	addi	r2,r2,14132
 1004d18:	11400017 	ldw	r5,0(r2)
 1004d1c:	8809883a 	mov	r4,r17
 1004d20:	10049fc0 	call	10049fc <_malloc_trim_r>
 1004d24:	003fba06 	br	1004c10 <__alt_mem_TCDM+0xff003c10>
 1004d28:	28c9883a 	add	r4,r5,r3
 1004d2c:	21000117 	ldw	r4,4(r4)
 1004d30:	2100004c 	andi	r4,r4,1
 1004d34:	2000391e 	bne	r4,zero,1004e1c <_free_r+0x2fc>
 1004d38:	29c00217 	ldw	r7,8(r5)
 1004d3c:	29000317 	ldw	r4,12(r5)
 1004d40:	1885883a 	add	r2,r3,r2
 1004d44:	10c00054 	ori	r3,r2,1
 1004d48:	39000315 	stw	r4,12(r7)
 1004d4c:	21c00215 	stw	r7,8(r4)
 1004d50:	30c00115 	stw	r3,4(r6)
 1004d54:	308d883a 	add	r6,r6,r2
 1004d58:	30800015 	stw	r2,0(r6)
 1004d5c:	003fac06 	br	1004c10 <__alt_mem_TCDM+0xff003c10>
 1004d60:	00c00504 	movi	r3,20
 1004d64:	19401536 	bltu	r3,r5,1004dbc <_free_r+0x29c>
 1004d68:	28c01704 	addi	r3,r5,92
 1004d6c:	18c7883a 	add	r3,r3,r3
 1004d70:	294016c4 	addi	r5,r5,91
 1004d74:	003fb406 	br	1004c48 <__alt_mem_TCDM+0xff003c48>
 1004d78:	280bd0ba 	srai	r5,r5,2
 1004d7c:	00c00044 	movi	r3,1
 1004d80:	38800117 	ldw	r2,4(r7)
 1004d84:	194a983a 	sll	r5,r3,r5
 1004d88:	2007883a 	mov	r3,r4
 1004d8c:	2884b03a 	or	r2,r5,r2
 1004d90:	38800115 	stw	r2,4(r7)
 1004d94:	003fbb06 	br	1004c84 <__alt_mem_TCDM+0xff003c84>
 1004d98:	21800515 	stw	r6,20(r4)
 1004d9c:	21800415 	stw	r6,16(r4)
 1004da0:	10c00054 	ori	r3,r2,1
 1004da4:	31c00315 	stw	r7,12(r6)
 1004da8:	31c00215 	stw	r7,8(r6)
 1004dac:	30c00115 	stw	r3,4(r6)
 1004db0:	308d883a 	add	r6,r6,r2
 1004db4:	30800015 	stw	r2,0(r6)
 1004db8:	003f9506 	br	1004c10 <__alt_mem_TCDM+0xff003c10>
 1004dbc:	00c01504 	movi	r3,84
 1004dc0:	19400536 	bltu	r3,r5,1004dd8 <_free_r+0x2b8>
 1004dc4:	100ad33a 	srli	r5,r2,12
 1004dc8:	28c01bc4 	addi	r3,r5,111
 1004dcc:	18c7883a 	add	r3,r3,r3
 1004dd0:	29401b84 	addi	r5,r5,110
 1004dd4:	003f9c06 	br	1004c48 <__alt_mem_TCDM+0xff003c48>
 1004dd8:	00c05504 	movi	r3,340
 1004ddc:	19400536 	bltu	r3,r5,1004df4 <_free_r+0x2d4>
 1004de0:	100ad3fa 	srli	r5,r2,15
 1004de4:	28c01e04 	addi	r3,r5,120
 1004de8:	18c7883a 	add	r3,r3,r3
 1004dec:	29401dc4 	addi	r5,r5,119
 1004df0:	003f9506 	br	1004c48 <__alt_mem_TCDM+0xff003c48>
 1004df4:	00c15504 	movi	r3,1364
 1004df8:	19400536 	bltu	r3,r5,1004e10 <_free_r+0x2f0>
 1004dfc:	100ad4ba 	srli	r5,r2,18
 1004e00:	28c01f44 	addi	r3,r5,125
 1004e04:	18c7883a 	add	r3,r3,r3
 1004e08:	29401f04 	addi	r5,r5,124
 1004e0c:	003f8e06 	br	1004c48 <__alt_mem_TCDM+0xff003c48>
 1004e10:	00c03f84 	movi	r3,254
 1004e14:	01401f84 	movi	r5,126
 1004e18:	003f8b06 	br	1004c48 <__alt_mem_TCDM+0xff003c48>
 1004e1c:	10c00054 	ori	r3,r2,1
 1004e20:	30c00115 	stw	r3,4(r6)
 1004e24:	308d883a 	add	r6,r6,r2
 1004e28:	30800015 	stw	r2,0(r6)
 1004e2c:	003f7806 	br	1004c10 <__alt_mem_TCDM+0xff003c10>

01004e30 <__sfvwrite_r>:
 1004e30:	30800217 	ldw	r2,8(r6)
 1004e34:	10006726 	beq	r2,zero,1004fd4 <__sfvwrite_r+0x1a4>
 1004e38:	28c0030b 	ldhu	r3,12(r5)
 1004e3c:	defff404 	addi	sp,sp,-48
 1004e40:	dd400715 	stw	r21,28(sp)
 1004e44:	dd000615 	stw	r20,24(sp)
 1004e48:	dc000215 	stw	r16,8(sp)
 1004e4c:	dfc00b15 	stw	ra,44(sp)
 1004e50:	df000a15 	stw	fp,40(sp)
 1004e54:	ddc00915 	stw	r23,36(sp)
 1004e58:	dd800815 	stw	r22,32(sp)
 1004e5c:	dcc00515 	stw	r19,20(sp)
 1004e60:	dc800415 	stw	r18,16(sp)
 1004e64:	dc400315 	stw	r17,12(sp)
 1004e68:	1880020c 	andi	r2,r3,8
 1004e6c:	2821883a 	mov	r16,r5
 1004e70:	202b883a 	mov	r21,r4
 1004e74:	3029883a 	mov	r20,r6
 1004e78:	10002726 	beq	r2,zero,1004f18 <__sfvwrite_r+0xe8>
 1004e7c:	28800417 	ldw	r2,16(r5)
 1004e80:	10002526 	beq	r2,zero,1004f18 <__sfvwrite_r+0xe8>
 1004e84:	1880008c 	andi	r2,r3,2
 1004e88:	a4400017 	ldw	r17,0(r20)
 1004e8c:	10002a26 	beq	r2,zero,1004f38 <__sfvwrite_r+0x108>
 1004e90:	05a00034 	movhi	r22,32768
 1004e94:	0027883a 	mov	r19,zero
 1004e98:	0025883a 	mov	r18,zero
 1004e9c:	b5bf0004 	addi	r22,r22,-1024
 1004ea0:	980d883a 	mov	r6,r19
 1004ea4:	a809883a 	mov	r4,r21
 1004ea8:	90004626 	beq	r18,zero,1004fc4 <__sfvwrite_r+0x194>
 1004eac:	900f883a 	mov	r7,r18
 1004eb0:	b480022e 	bgeu	r22,r18,1004ebc <__sfvwrite_r+0x8c>
 1004eb4:	01e00034 	movhi	r7,32768
 1004eb8:	39ff0004 	addi	r7,r7,-1024
 1004ebc:	80800917 	ldw	r2,36(r16)
 1004ec0:	81400717 	ldw	r5,28(r16)
 1004ec4:	103ee83a 	callr	r2
 1004ec8:	0080570e 	bge	zero,r2,1005028 <__sfvwrite_r+0x1f8>
 1004ecc:	a0c00217 	ldw	r3,8(r20)
 1004ed0:	98a7883a 	add	r19,r19,r2
 1004ed4:	90a5c83a 	sub	r18,r18,r2
 1004ed8:	1885c83a 	sub	r2,r3,r2
 1004edc:	a0800215 	stw	r2,8(r20)
 1004ee0:	103fef1e 	bne	r2,zero,1004ea0 <__alt_mem_TCDM+0xff003ea0>
 1004ee4:	0005883a 	mov	r2,zero
 1004ee8:	dfc00b17 	ldw	ra,44(sp)
 1004eec:	df000a17 	ldw	fp,40(sp)
 1004ef0:	ddc00917 	ldw	r23,36(sp)
 1004ef4:	dd800817 	ldw	r22,32(sp)
 1004ef8:	dd400717 	ldw	r21,28(sp)
 1004efc:	dd000617 	ldw	r20,24(sp)
 1004f00:	dcc00517 	ldw	r19,20(sp)
 1004f04:	dc800417 	ldw	r18,16(sp)
 1004f08:	dc400317 	ldw	r17,12(sp)
 1004f0c:	dc000217 	ldw	r16,8(sp)
 1004f10:	dec00c04 	addi	sp,sp,48
 1004f14:	f800283a 	ret
 1004f18:	800b883a 	mov	r5,r16
 1004f1c:	a809883a 	mov	r4,r21
 1004f20:	10029d80 	call	10029d8 <__swsetup_r>
 1004f24:	1000eb1e 	bne	r2,zero,10052d4 <__sfvwrite_r+0x4a4>
 1004f28:	80c0030b 	ldhu	r3,12(r16)
 1004f2c:	a4400017 	ldw	r17,0(r20)
 1004f30:	1880008c 	andi	r2,r3,2
 1004f34:	103fd61e 	bne	r2,zero,1004e90 <__alt_mem_TCDM+0xff003e90>
 1004f38:	1880004c 	andi	r2,r3,1
 1004f3c:	10003f1e 	bne	r2,zero,100503c <__sfvwrite_r+0x20c>
 1004f40:	0039883a 	mov	fp,zero
 1004f44:	0025883a 	mov	r18,zero
 1004f48:	90001a26 	beq	r18,zero,1004fb4 <__sfvwrite_r+0x184>
 1004f4c:	1880800c 	andi	r2,r3,512
 1004f50:	84c00217 	ldw	r19,8(r16)
 1004f54:	10002126 	beq	r2,zero,1004fdc <__sfvwrite_r+0x1ac>
 1004f58:	982f883a 	mov	r23,r19
 1004f5c:	94c09336 	bltu	r18,r19,10051ac <__sfvwrite_r+0x37c>
 1004f60:	1881200c 	andi	r2,r3,1152
 1004f64:	10009e1e 	bne	r2,zero,10051e0 <__sfvwrite_r+0x3b0>
 1004f68:	81000017 	ldw	r4,0(r16)
 1004f6c:	b80d883a 	mov	r6,r23
 1004f70:	e00b883a 	mov	r5,fp
 1004f74:	10061440 	call	1006144 <memmove>
 1004f78:	80c00217 	ldw	r3,8(r16)
 1004f7c:	81000017 	ldw	r4,0(r16)
 1004f80:	9005883a 	mov	r2,r18
 1004f84:	1ce7c83a 	sub	r19,r3,r19
 1004f88:	25cf883a 	add	r7,r4,r23
 1004f8c:	84c00215 	stw	r19,8(r16)
 1004f90:	81c00015 	stw	r7,0(r16)
 1004f94:	a0c00217 	ldw	r3,8(r20)
 1004f98:	e0b9883a 	add	fp,fp,r2
 1004f9c:	90a5c83a 	sub	r18,r18,r2
 1004fa0:	18a7c83a 	sub	r19,r3,r2
 1004fa4:	a4c00215 	stw	r19,8(r20)
 1004fa8:	983fce26 	beq	r19,zero,1004ee4 <__alt_mem_TCDM+0xff003ee4>
 1004fac:	80c0030b 	ldhu	r3,12(r16)
 1004fb0:	903fe61e 	bne	r18,zero,1004f4c <__alt_mem_TCDM+0xff003f4c>
 1004fb4:	8f000017 	ldw	fp,0(r17)
 1004fb8:	8c800117 	ldw	r18,4(r17)
 1004fbc:	8c400204 	addi	r17,r17,8
 1004fc0:	003fe106 	br	1004f48 <__alt_mem_TCDM+0xff003f48>
 1004fc4:	8cc00017 	ldw	r19,0(r17)
 1004fc8:	8c800117 	ldw	r18,4(r17)
 1004fcc:	8c400204 	addi	r17,r17,8
 1004fd0:	003fb306 	br	1004ea0 <__alt_mem_TCDM+0xff003ea0>
 1004fd4:	0005883a 	mov	r2,zero
 1004fd8:	f800283a 	ret
 1004fdc:	81000017 	ldw	r4,0(r16)
 1004fe0:	80800417 	ldw	r2,16(r16)
 1004fe4:	11005736 	bltu	r2,r4,1005144 <__sfvwrite_r+0x314>
 1004fe8:	85c00517 	ldw	r23,20(r16)
 1004fec:	95c05536 	bltu	r18,r23,1005144 <__sfvwrite_r+0x314>
 1004ff0:	00a00034 	movhi	r2,32768
 1004ff4:	10bfffc4 	addi	r2,r2,-1
 1004ff8:	9009883a 	mov	r4,r18
 1004ffc:	1480012e 	bgeu	r2,r18,1005004 <__sfvwrite_r+0x1d4>
 1005000:	1009883a 	mov	r4,r2
 1005004:	b80b883a 	mov	r5,r23
 1005008:	100a6340 	call	100a634 <__divsi3>
 100500c:	15cf383a 	mul	r7,r2,r23
 1005010:	81400717 	ldw	r5,28(r16)
 1005014:	80800917 	ldw	r2,36(r16)
 1005018:	e00d883a 	mov	r6,fp
 100501c:	a809883a 	mov	r4,r21
 1005020:	103ee83a 	callr	r2
 1005024:	00bfdb16 	blt	zero,r2,1004f94 <__alt_mem_TCDM+0xff003f94>
 1005028:	8080030b 	ldhu	r2,12(r16)
 100502c:	10801014 	ori	r2,r2,64
 1005030:	8080030d 	sth	r2,12(r16)
 1005034:	00bfffc4 	movi	r2,-1
 1005038:	003fab06 	br	1004ee8 <__alt_mem_TCDM+0xff003ee8>
 100503c:	0027883a 	mov	r19,zero
 1005040:	0011883a 	mov	r8,zero
 1005044:	0039883a 	mov	fp,zero
 1005048:	0025883a 	mov	r18,zero
 100504c:	90001f26 	beq	r18,zero,10050cc <__sfvwrite_r+0x29c>
 1005050:	40005a26 	beq	r8,zero,10051bc <__sfvwrite_r+0x38c>
 1005054:	982d883a 	mov	r22,r19
 1005058:	94c0012e 	bgeu	r18,r19,1005060 <__sfvwrite_r+0x230>
 100505c:	902d883a 	mov	r22,r18
 1005060:	81000017 	ldw	r4,0(r16)
 1005064:	80800417 	ldw	r2,16(r16)
 1005068:	b02f883a 	mov	r23,r22
 100506c:	81c00517 	ldw	r7,20(r16)
 1005070:	1100032e 	bgeu	r2,r4,1005080 <__sfvwrite_r+0x250>
 1005074:	80c00217 	ldw	r3,8(r16)
 1005078:	38c7883a 	add	r3,r7,r3
 100507c:	1d801816 	blt	r3,r22,10050e0 <__sfvwrite_r+0x2b0>
 1005080:	b1c03e16 	blt	r22,r7,100517c <__sfvwrite_r+0x34c>
 1005084:	80800917 	ldw	r2,36(r16)
 1005088:	81400717 	ldw	r5,28(r16)
 100508c:	e00d883a 	mov	r6,fp
 1005090:	da000115 	stw	r8,4(sp)
 1005094:	a809883a 	mov	r4,r21
 1005098:	103ee83a 	callr	r2
 100509c:	102f883a 	mov	r23,r2
 10050a0:	da000117 	ldw	r8,4(sp)
 10050a4:	00bfe00e 	bge	zero,r2,1005028 <__alt_mem_TCDM+0xff004028>
 10050a8:	9de7c83a 	sub	r19,r19,r23
 10050ac:	98001f26 	beq	r19,zero,100512c <__sfvwrite_r+0x2fc>
 10050b0:	a0800217 	ldw	r2,8(r20)
 10050b4:	e5f9883a 	add	fp,fp,r23
 10050b8:	95e5c83a 	sub	r18,r18,r23
 10050bc:	15efc83a 	sub	r23,r2,r23
 10050c0:	a5c00215 	stw	r23,8(r20)
 10050c4:	b83f8726 	beq	r23,zero,1004ee4 <__alt_mem_TCDM+0xff003ee4>
 10050c8:	903fe11e 	bne	r18,zero,1005050 <__alt_mem_TCDM+0xff004050>
 10050cc:	8f000017 	ldw	fp,0(r17)
 10050d0:	8c800117 	ldw	r18,4(r17)
 10050d4:	0011883a 	mov	r8,zero
 10050d8:	8c400204 	addi	r17,r17,8
 10050dc:	003fdb06 	br	100504c <__alt_mem_TCDM+0xff00404c>
 10050e0:	180d883a 	mov	r6,r3
 10050e4:	e00b883a 	mov	r5,fp
 10050e8:	da000115 	stw	r8,4(sp)
 10050ec:	d8c00015 	stw	r3,0(sp)
 10050f0:	10061440 	call	1006144 <memmove>
 10050f4:	d8c00017 	ldw	r3,0(sp)
 10050f8:	80800017 	ldw	r2,0(r16)
 10050fc:	800b883a 	mov	r5,r16
 1005100:	a809883a 	mov	r4,r21
 1005104:	10c5883a 	add	r2,r2,r3
 1005108:	80800015 	stw	r2,0(r16)
 100510c:	d8c00015 	stw	r3,0(sp)
 1005110:	10045d00 	call	10045d0 <_fflush_r>
 1005114:	d8c00017 	ldw	r3,0(sp)
 1005118:	da000117 	ldw	r8,4(sp)
 100511c:	103fc21e 	bne	r2,zero,1005028 <__alt_mem_TCDM+0xff004028>
 1005120:	182f883a 	mov	r23,r3
 1005124:	9de7c83a 	sub	r19,r19,r23
 1005128:	983fe11e 	bne	r19,zero,10050b0 <__alt_mem_TCDM+0xff0040b0>
 100512c:	800b883a 	mov	r5,r16
 1005130:	a809883a 	mov	r4,r21
 1005134:	10045d00 	call	10045d0 <_fflush_r>
 1005138:	103fbb1e 	bne	r2,zero,1005028 <__alt_mem_TCDM+0xff004028>
 100513c:	0011883a 	mov	r8,zero
 1005140:	003fdb06 	br	10050b0 <__alt_mem_TCDM+0xff0040b0>
 1005144:	94c0012e 	bgeu	r18,r19,100514c <__sfvwrite_r+0x31c>
 1005148:	9027883a 	mov	r19,r18
 100514c:	980d883a 	mov	r6,r19
 1005150:	e00b883a 	mov	r5,fp
 1005154:	10061440 	call	1006144 <memmove>
 1005158:	80800217 	ldw	r2,8(r16)
 100515c:	80c00017 	ldw	r3,0(r16)
 1005160:	14c5c83a 	sub	r2,r2,r19
 1005164:	1cc7883a 	add	r3,r3,r19
 1005168:	80800215 	stw	r2,8(r16)
 100516c:	80c00015 	stw	r3,0(r16)
 1005170:	10004326 	beq	r2,zero,1005280 <__sfvwrite_r+0x450>
 1005174:	9805883a 	mov	r2,r19
 1005178:	003f8606 	br	1004f94 <__alt_mem_TCDM+0xff003f94>
 100517c:	b00d883a 	mov	r6,r22
 1005180:	e00b883a 	mov	r5,fp
 1005184:	da000115 	stw	r8,4(sp)
 1005188:	10061440 	call	1006144 <memmove>
 100518c:	80800217 	ldw	r2,8(r16)
 1005190:	80c00017 	ldw	r3,0(r16)
 1005194:	da000117 	ldw	r8,4(sp)
 1005198:	1585c83a 	sub	r2,r2,r22
 100519c:	1dad883a 	add	r22,r3,r22
 10051a0:	80800215 	stw	r2,8(r16)
 10051a4:	85800015 	stw	r22,0(r16)
 10051a8:	003fbf06 	br	10050a8 <__alt_mem_TCDM+0xff0040a8>
 10051ac:	81000017 	ldw	r4,0(r16)
 10051b0:	9027883a 	mov	r19,r18
 10051b4:	902f883a 	mov	r23,r18
 10051b8:	003f6c06 	br	1004f6c <__alt_mem_TCDM+0xff003f6c>
 10051bc:	900d883a 	mov	r6,r18
 10051c0:	01400284 	movi	r5,10
 10051c4:	e009883a 	mov	r4,fp
 10051c8:	1005f180 	call	1005f18 <memchr>
 10051cc:	10003e26 	beq	r2,zero,10052c8 <__sfvwrite_r+0x498>
 10051d0:	10800044 	addi	r2,r2,1
 10051d4:	1727c83a 	sub	r19,r2,fp
 10051d8:	02000044 	movi	r8,1
 10051dc:	003f9d06 	br	1005054 <__alt_mem_TCDM+0xff004054>
 10051e0:	80800517 	ldw	r2,20(r16)
 10051e4:	81400417 	ldw	r5,16(r16)
 10051e8:	81c00017 	ldw	r7,0(r16)
 10051ec:	10a7883a 	add	r19,r2,r2
 10051f0:	9885883a 	add	r2,r19,r2
 10051f4:	1026d7fa 	srli	r19,r2,31
 10051f8:	396dc83a 	sub	r22,r7,r5
 10051fc:	b1000044 	addi	r4,r22,1
 1005200:	9885883a 	add	r2,r19,r2
 1005204:	1027d07a 	srai	r19,r2,1
 1005208:	2485883a 	add	r2,r4,r18
 100520c:	980d883a 	mov	r6,r19
 1005210:	9880022e 	bgeu	r19,r2,100521c <__sfvwrite_r+0x3ec>
 1005214:	1027883a 	mov	r19,r2
 1005218:	100d883a 	mov	r6,r2
 100521c:	18c1000c 	andi	r3,r3,1024
 1005220:	18001c26 	beq	r3,zero,1005294 <__sfvwrite_r+0x464>
 1005224:	300b883a 	mov	r5,r6
 1005228:	a809883a 	mov	r4,r21
 100522c:	100570c0 	call	100570c <_malloc_r>
 1005230:	102f883a 	mov	r23,r2
 1005234:	10002926 	beq	r2,zero,10052dc <__sfvwrite_r+0x4ac>
 1005238:	81400417 	ldw	r5,16(r16)
 100523c:	b00d883a 	mov	r6,r22
 1005240:	1009883a 	mov	r4,r2
 1005244:	1005ffc0 	call	1005ffc <memcpy>
 1005248:	8080030b 	ldhu	r2,12(r16)
 100524c:	00fedfc4 	movi	r3,-1153
 1005250:	10c4703a 	and	r2,r2,r3
 1005254:	10802014 	ori	r2,r2,128
 1005258:	8080030d 	sth	r2,12(r16)
 100525c:	bd89883a 	add	r4,r23,r22
 1005260:	9d8fc83a 	sub	r7,r19,r22
 1005264:	85c00415 	stw	r23,16(r16)
 1005268:	84c00515 	stw	r19,20(r16)
 100526c:	81000015 	stw	r4,0(r16)
 1005270:	9027883a 	mov	r19,r18
 1005274:	81c00215 	stw	r7,8(r16)
 1005278:	902f883a 	mov	r23,r18
 100527c:	003f3b06 	br	1004f6c <__alt_mem_TCDM+0xff003f6c>
 1005280:	800b883a 	mov	r5,r16
 1005284:	a809883a 	mov	r4,r21
 1005288:	10045d00 	call	10045d0 <_fflush_r>
 100528c:	103fb926 	beq	r2,zero,1005174 <__alt_mem_TCDM+0xff004174>
 1005290:	003f6506 	br	1005028 <__alt_mem_TCDM+0xff004028>
 1005294:	a809883a 	mov	r4,r21
 1005298:	10073c40 	call	10073c4 <_realloc_r>
 100529c:	102f883a 	mov	r23,r2
 10052a0:	103fee1e 	bne	r2,zero,100525c <__alt_mem_TCDM+0xff00425c>
 10052a4:	81400417 	ldw	r5,16(r16)
 10052a8:	a809883a 	mov	r4,r21
 10052ac:	1004b200 	call	1004b20 <_free_r>
 10052b0:	8080030b 	ldhu	r2,12(r16)
 10052b4:	00ffdfc4 	movi	r3,-129
 10052b8:	1884703a 	and	r2,r3,r2
 10052bc:	00c00304 	movi	r3,12
 10052c0:	a8c00015 	stw	r3,0(r21)
 10052c4:	003f5906 	br	100502c <__alt_mem_TCDM+0xff00402c>
 10052c8:	94c00044 	addi	r19,r18,1
 10052cc:	02000044 	movi	r8,1
 10052d0:	003f6006 	br	1005054 <__alt_mem_TCDM+0xff004054>
 10052d4:	00bfffc4 	movi	r2,-1
 10052d8:	003f0306 	br	1004ee8 <__alt_mem_TCDM+0xff003ee8>
 10052dc:	00800304 	movi	r2,12
 10052e0:	a8800015 	stw	r2,0(r21)
 10052e4:	8080030b 	ldhu	r2,12(r16)
 10052e8:	003f5006 	br	100502c <__alt_mem_TCDM+0xff00402c>

010052ec <_fwalk>:
 10052ec:	defff704 	addi	sp,sp,-36
 10052f0:	dd000415 	stw	r20,16(sp)
 10052f4:	dfc00815 	stw	ra,32(sp)
 10052f8:	ddc00715 	stw	r23,28(sp)
 10052fc:	dd800615 	stw	r22,24(sp)
 1005300:	dd400515 	stw	r21,20(sp)
 1005304:	dcc00315 	stw	r19,12(sp)
 1005308:	dc800215 	stw	r18,8(sp)
 100530c:	dc400115 	stw	r17,4(sp)
 1005310:	dc000015 	stw	r16,0(sp)
 1005314:	2500b804 	addi	r20,r4,736
 1005318:	a0002326 	beq	r20,zero,10053a8 <_fwalk+0xbc>
 100531c:	282b883a 	mov	r21,r5
 1005320:	002f883a 	mov	r23,zero
 1005324:	05800044 	movi	r22,1
 1005328:	04ffffc4 	movi	r19,-1
 100532c:	a4400117 	ldw	r17,4(r20)
 1005330:	a4800217 	ldw	r18,8(r20)
 1005334:	8c7fffc4 	addi	r17,r17,-1
 1005338:	88000d16 	blt	r17,zero,1005370 <_fwalk+0x84>
 100533c:	94000304 	addi	r16,r18,12
 1005340:	94800384 	addi	r18,r18,14
 1005344:	8080000b 	ldhu	r2,0(r16)
 1005348:	8c7fffc4 	addi	r17,r17,-1
 100534c:	813ffd04 	addi	r4,r16,-12
 1005350:	b080042e 	bgeu	r22,r2,1005364 <_fwalk+0x78>
 1005354:	9080000f 	ldh	r2,0(r18)
 1005358:	14c00226 	beq	r2,r19,1005364 <_fwalk+0x78>
 100535c:	a83ee83a 	callr	r21
 1005360:	b8aeb03a 	or	r23,r23,r2
 1005364:	84001a04 	addi	r16,r16,104
 1005368:	94801a04 	addi	r18,r18,104
 100536c:	8cfff51e 	bne	r17,r19,1005344 <__alt_mem_TCDM+0xff004344>
 1005370:	a5000017 	ldw	r20,0(r20)
 1005374:	a03fed1e 	bne	r20,zero,100532c <__alt_mem_TCDM+0xff00432c>
 1005378:	b805883a 	mov	r2,r23
 100537c:	dfc00817 	ldw	ra,32(sp)
 1005380:	ddc00717 	ldw	r23,28(sp)
 1005384:	dd800617 	ldw	r22,24(sp)
 1005388:	dd400517 	ldw	r21,20(sp)
 100538c:	dd000417 	ldw	r20,16(sp)
 1005390:	dcc00317 	ldw	r19,12(sp)
 1005394:	dc800217 	ldw	r18,8(sp)
 1005398:	dc400117 	ldw	r17,4(sp)
 100539c:	dc000017 	ldw	r16,0(sp)
 10053a0:	dec00904 	addi	sp,sp,36
 10053a4:	f800283a 	ret
 10053a8:	002f883a 	mov	r23,zero
 10053ac:	003ff206 	br	1005378 <__alt_mem_TCDM+0xff004378>

010053b0 <_fwalk_reent>:
 10053b0:	defff704 	addi	sp,sp,-36
 10053b4:	dd000415 	stw	r20,16(sp)
 10053b8:	dfc00815 	stw	ra,32(sp)
 10053bc:	ddc00715 	stw	r23,28(sp)
 10053c0:	dd800615 	stw	r22,24(sp)
 10053c4:	dd400515 	stw	r21,20(sp)
 10053c8:	dcc00315 	stw	r19,12(sp)
 10053cc:	dc800215 	stw	r18,8(sp)
 10053d0:	dc400115 	stw	r17,4(sp)
 10053d4:	dc000015 	stw	r16,0(sp)
 10053d8:	2500b804 	addi	r20,r4,736
 10053dc:	a0002326 	beq	r20,zero,100546c <_fwalk_reent+0xbc>
 10053e0:	282b883a 	mov	r21,r5
 10053e4:	2027883a 	mov	r19,r4
 10053e8:	002f883a 	mov	r23,zero
 10053ec:	05800044 	movi	r22,1
 10053f0:	04bfffc4 	movi	r18,-1
 10053f4:	a4400117 	ldw	r17,4(r20)
 10053f8:	a4000217 	ldw	r16,8(r20)
 10053fc:	8c7fffc4 	addi	r17,r17,-1
 1005400:	88000c16 	blt	r17,zero,1005434 <_fwalk_reent+0x84>
 1005404:	84000304 	addi	r16,r16,12
 1005408:	8080000b 	ldhu	r2,0(r16)
 100540c:	8c7fffc4 	addi	r17,r17,-1
 1005410:	817ffd04 	addi	r5,r16,-12
 1005414:	b080052e 	bgeu	r22,r2,100542c <_fwalk_reent+0x7c>
 1005418:	8080008f 	ldh	r2,2(r16)
 100541c:	9809883a 	mov	r4,r19
 1005420:	14800226 	beq	r2,r18,100542c <_fwalk_reent+0x7c>
 1005424:	a83ee83a 	callr	r21
 1005428:	b8aeb03a 	or	r23,r23,r2
 100542c:	84001a04 	addi	r16,r16,104
 1005430:	8cbff51e 	bne	r17,r18,1005408 <__alt_mem_TCDM+0xff004408>
 1005434:	a5000017 	ldw	r20,0(r20)
 1005438:	a03fee1e 	bne	r20,zero,10053f4 <__alt_mem_TCDM+0xff0043f4>
 100543c:	b805883a 	mov	r2,r23
 1005440:	dfc00817 	ldw	ra,32(sp)
 1005444:	ddc00717 	ldw	r23,28(sp)
 1005448:	dd800617 	ldw	r22,24(sp)
 100544c:	dd400517 	ldw	r21,20(sp)
 1005450:	dd000417 	ldw	r20,16(sp)
 1005454:	dcc00317 	ldw	r19,12(sp)
 1005458:	dc800217 	ldw	r18,8(sp)
 100545c:	dc400117 	ldw	r17,4(sp)
 1005460:	dc000017 	ldw	r16,0(sp)
 1005464:	dec00904 	addi	sp,sp,36
 1005468:	f800283a 	ret
 100546c:	002f883a 	mov	r23,zero
 1005470:	003ff206 	br	100543c <__alt_mem_TCDM+0xff00443c>

01005474 <_setlocale_r>:
 1005474:	30001b26 	beq	r6,zero,10054e4 <_setlocale_r+0x70>
 1005478:	01404074 	movhi	r5,257
 100547c:	defffe04 	addi	sp,sp,-8
 1005480:	297f7304 	addi	r5,r5,-564
 1005484:	3009883a 	mov	r4,r6
 1005488:	dc000015 	stw	r16,0(sp)
 100548c:	dfc00115 	stw	ra,4(sp)
 1005490:	3021883a 	mov	r16,r6
 1005494:	1007b2c0 	call	1007b2c <strcmp>
 1005498:	1000061e 	bne	r2,zero,10054b4 <_setlocale_r+0x40>
 100549c:	00804074 	movhi	r2,257
 10054a0:	10bf7204 	addi	r2,r2,-568
 10054a4:	dfc00117 	ldw	ra,4(sp)
 10054a8:	dc000017 	ldw	r16,0(sp)
 10054ac:	dec00204 	addi	sp,sp,8
 10054b0:	f800283a 	ret
 10054b4:	01404074 	movhi	r5,257
 10054b8:	297f7204 	addi	r5,r5,-568
 10054bc:	8009883a 	mov	r4,r16
 10054c0:	1007b2c0 	call	1007b2c <strcmp>
 10054c4:	103ff526 	beq	r2,zero,100549c <__alt_mem_TCDM+0xff00449c>
 10054c8:	01404074 	movhi	r5,257
 10054cc:	297f5d04 	addi	r5,r5,-652
 10054d0:	8009883a 	mov	r4,r16
 10054d4:	1007b2c0 	call	1007b2c <strcmp>
 10054d8:	103ff026 	beq	r2,zero,100549c <__alt_mem_TCDM+0xff00449c>
 10054dc:	0005883a 	mov	r2,zero
 10054e0:	003ff006 	br	10054a4 <__alt_mem_TCDM+0xff0044a4>
 10054e4:	00804074 	movhi	r2,257
 10054e8:	10bf7204 	addi	r2,r2,-568
 10054ec:	f800283a 	ret

010054f0 <__locale_charset>:
 10054f0:	00804074 	movhi	r2,257
 10054f4:	10816304 	addi	r2,r2,1420
 10054f8:	f800283a 	ret

010054fc <__locale_mb_cur_max>:
 10054fc:	00804074 	movhi	r2,257
 1005500:	1086ff04 	addi	r2,r2,7164
 1005504:	10800017 	ldw	r2,0(r2)
 1005508:	f800283a 	ret

0100550c <__locale_msgcharset>:
 100550c:	00804074 	movhi	r2,257
 1005510:	10815b04 	addi	r2,r2,1388
 1005514:	f800283a 	ret

01005518 <__locale_cjk_lang>:
 1005518:	0005883a 	mov	r2,zero
 100551c:	f800283a 	ret

01005520 <_localeconv_r>:
 1005520:	00804074 	movhi	r2,257
 1005524:	10816b04 	addi	r2,r2,1452
 1005528:	f800283a 	ret

0100552c <setlocale>:
 100552c:	00804074 	movhi	r2,257
 1005530:	1086fe04 	addi	r2,r2,7160
 1005534:	280d883a 	mov	r6,r5
 1005538:	200b883a 	mov	r5,r4
 100553c:	11000017 	ldw	r4,0(r2)
 1005540:	10054741 	jmpi	1005474 <_setlocale_r>

01005544 <localeconv>:
 1005544:	00804074 	movhi	r2,257
 1005548:	10816b04 	addi	r2,r2,1452
 100554c:	f800283a 	ret

01005550 <__smakebuf_r>:
 1005550:	2880030b 	ldhu	r2,12(r5)
 1005554:	10c0008c 	andi	r3,r2,2
 1005558:	1800411e 	bne	r3,zero,1005660 <__smakebuf_r+0x110>
 100555c:	deffec04 	addi	sp,sp,-80
 1005560:	dc000f15 	stw	r16,60(sp)
 1005564:	2821883a 	mov	r16,r5
 1005568:	2940038f 	ldh	r5,14(r5)
 100556c:	dc401015 	stw	r17,64(sp)
 1005570:	dfc01315 	stw	ra,76(sp)
 1005574:	dcc01215 	stw	r19,72(sp)
 1005578:	dc801115 	stw	r18,68(sp)
 100557c:	2023883a 	mov	r17,r4
 1005580:	28001c16 	blt	r5,zero,10055f4 <__smakebuf_r+0xa4>
 1005584:	d80d883a 	mov	r6,sp
 1005588:	10096d40 	call	10096d4 <_fstat_r>
 100558c:	10001816 	blt	r2,zero,10055f0 <__smakebuf_r+0xa0>
 1005590:	d8800117 	ldw	r2,4(sp)
 1005594:	00e00014 	movui	r3,32768
 1005598:	10bc000c 	andi	r2,r2,61440
 100559c:	14c80020 	cmpeqi	r19,r2,8192
 10055a0:	10c03726 	beq	r2,r3,1005680 <__smakebuf_r+0x130>
 10055a4:	80c0030b 	ldhu	r3,12(r16)
 10055a8:	18c20014 	ori	r3,r3,2048
 10055ac:	80c0030d 	sth	r3,12(r16)
 10055b0:	00c80004 	movi	r3,8192
 10055b4:	10c0521e 	bne	r2,r3,1005700 <__smakebuf_r+0x1b0>
 10055b8:	8140038f 	ldh	r5,14(r16)
 10055bc:	8809883a 	mov	r4,r17
